
./FPGA_output/FPGA/cus_XOR_uart.elf:     file format elf64-littleriscv


Disassembly of section .text.init:

0000000080000000 <_start>:
    80000000:	4081                	li	ra,0
    80000002:	4101                	li	sp,0
    80000004:	4181                	li	gp,0
    80000006:	4201                	li	tp,0
    80000008:	4281                	li	t0,0
    8000000a:	4301                	li	t1,0
    8000000c:	4381                	li	t2,0
    8000000e:	4401                	li	s0,0
    80000010:	4481                	li	s1,0
    80000012:	4501                	li	a0,0
    80000014:	4581                	li	a1,0
    80000016:	4601                	li	a2,0
    80000018:	4681                	li	a3,0
    8000001a:	4701                	li	a4,0
    8000001c:	4781                	li	a5,0
    8000001e:	4801                	li	a6,0
    80000020:	4881                	li	a7,0
    80000022:	4901                	li	s2,0
    80000024:	4981                	li	s3,0
    80000026:	4a01                	li	s4,0
    80000028:	4a81                	li	s5,0
    8000002a:	4b01                	li	s6,0
    8000002c:	4b81                	li	s7,0
    8000002e:	4c01                	li	s8,0
    80000030:	4c81                	li	s9,0
    80000032:	4d01                	li	s10,0
    80000034:	4d81                	li	s11,0
    80000036:	4e01                	li	t3,0
    80000038:	4e81                	li	t4,0
    8000003a:	4f01                	li	t5,0
    8000003c:	4f81                	li	t6,0
    8000003e:	62f9                	lui	t0,0x1e
    80000040:	3002a073          	csrs	mstatus,t0
    80000044:	4285                	li	t0,1
    80000046:	02fe                	slli	t0,t0,0x1f
    80000048:	0002d863          	bgez	t0,80000058 <_start+0x58>
    8000004c:	4505                	li	a0,1
    8000004e:	00000297          	auipc	t0,0x0
    80000052:	1aa2a923          	sw	a0,434(t0) # 80000200 <tohost>
    80000056:	bfdd                	j	8000004c <_start+0x4c>
    80000058:	00000297          	auipc	t0,0x0
    8000005c:	09028293          	addi	t0,t0,144 # 800000e8 <_start+0xe8>
    80000060:	30529073          	csrw	mtvec,t0
    80000064:	00301073          	fssr	zero
    80000068:	f0000053          	fmv.w.x	ft0,zero
    8000006c:	f00000d3          	fmv.w.x	ft1,zero
    80000070:	f0000153          	fmv.w.x	ft2,zero
    80000074:	f00001d3          	fmv.w.x	ft3,zero
    80000078:	f0000253          	fmv.w.x	ft4,zero
    8000007c:	f00002d3          	fmv.w.x	ft5,zero
    80000080:	f0000353          	fmv.w.x	ft6,zero
    80000084:	f00003d3          	fmv.w.x	ft7,zero
    80000088:	f0000453          	fmv.w.x	fs0,zero
    8000008c:	f00004d3          	fmv.w.x	fs1,zero
    80000090:	f0000553          	fmv.w.x	fa0,zero
    80000094:	f00005d3          	fmv.w.x	fa1,zero
    80000098:	f0000653          	fmv.w.x	fa2,zero
    8000009c:	f00006d3          	fmv.w.x	fa3,zero
    800000a0:	f0000753          	fmv.w.x	fa4,zero
    800000a4:	f00007d3          	fmv.w.x	fa5,zero
    800000a8:	f0000853          	fmv.w.x	fa6,zero
    800000ac:	f00008d3          	fmv.w.x	fa7,zero
    800000b0:	f0000953          	fmv.w.x	fs2,zero
    800000b4:	f00009d3          	fmv.w.x	fs3,zero
    800000b8:	f0000a53          	fmv.w.x	fs4,zero
    800000bc:	f0000ad3          	fmv.w.x	fs5,zero
    800000c0:	f0000b53          	fmv.w.x	fs6,zero
    800000c4:	f0000bd3          	fmv.w.x	fs7,zero
    800000c8:	f0000c53          	fmv.w.x	fs8,zero
    800000cc:	f0000cd3          	fmv.w.x	fs9,zero
    800000d0:	f0000d53          	fmv.w.x	fs10,zero
    800000d4:	f0000dd3          	fmv.w.x	fs11,zero
    800000d8:	f0000e53          	fmv.w.x	ft8,zero
    800000dc:	f0000ed3          	fmv.w.x	ft9,zero
    800000e0:	f0000f53          	fmv.w.x	ft10,zero
    800000e4:	f0000fd3          	fmv.w.x	ft11,zero
    800000e8:	00000297          	auipc	t0,0x0
    800000ec:	03828293          	addi	t0,t0,56 # 80000120 <trap_entry>
    800000f0:	30529073          	csrw	mtvec,t0
    800000f4:	00009197          	auipc	gp,0x9
    800000f8:	20c18193          	addi	gp,gp,524 # 80009300 <__global_pointer$>
    800000fc:	c7f18213          	addi	tp,gp,-897 # 80008f7f <_end+0x3f>
    80000100:	fc027213          	andi	tp,tp,-64
    80000104:	f1402573          	csrr	a0,mhartid
    80000108:	4585                	li	a1,1
    8000010a:	00b57063          	bleu	a1,a0,8000010a <_start+0x10a>
    8000010e:	00150113          	addi	sp,a0,1
    80000112:	0146                	slli	sp,sp,0x11
    80000114:	9112                	add	sp,sp,tp
    80000116:	01151613          	slli	a2,a0,0x11
    8000011a:	9232                	add	tp,tp,a2
    8000011c:	6ce0506f          	j	800057ea <_init>

0000000080000120 <trap_entry>:
    80000120:	716d                	addi	sp,sp,-272
    80000122:	e406                	sd	ra,8(sp)
    80000124:	e80a                	sd	sp,16(sp)
    80000126:	ec0e                	sd	gp,24(sp)
    80000128:	f012                	sd	tp,32(sp)
    8000012a:	f416                	sd	t0,40(sp)
    8000012c:	f81a                	sd	t1,48(sp)
    8000012e:	fc1e                	sd	t2,56(sp)
    80000130:	e0a2                	sd	s0,64(sp)
    80000132:	e4a6                	sd	s1,72(sp)
    80000134:	e8aa                	sd	a0,80(sp)
    80000136:	ecae                	sd	a1,88(sp)
    80000138:	f0b2                	sd	a2,96(sp)
    8000013a:	f4b6                	sd	a3,104(sp)
    8000013c:	f8ba                	sd	a4,112(sp)
    8000013e:	fcbe                	sd	a5,120(sp)
    80000140:	e142                	sd	a6,128(sp)
    80000142:	e546                	sd	a7,136(sp)
    80000144:	e94a                	sd	s2,144(sp)
    80000146:	ed4e                	sd	s3,152(sp)
    80000148:	f152                	sd	s4,160(sp)
    8000014a:	f556                	sd	s5,168(sp)
    8000014c:	f95a                	sd	s6,176(sp)
    8000014e:	fd5e                	sd	s7,184(sp)
    80000150:	e1e2                	sd	s8,192(sp)
    80000152:	e5e6                	sd	s9,200(sp)
    80000154:	e9ea                	sd	s10,208(sp)
    80000156:	edee                	sd	s11,216(sp)
    80000158:	f1f2                	sd	t3,224(sp)
    8000015a:	f5f6                	sd	t4,232(sp)
    8000015c:	f9fa                	sd	t5,240(sp)
    8000015e:	fdfe                	sd	t6,248(sp)
    80000160:	34202573          	csrr	a0,mcause
    80000164:	341025f3          	csrr	a1,mepc
    80000168:	860a                	mv	a2,sp
    8000016a:	562050ef          	jal	ra,800056cc <handle_trap>
    8000016e:	34151073          	csrw	mepc,a0
    80000172:	6289                	lui	t0,0x2
    80000174:	8002829b          	addiw	t0,t0,-2048
    80000178:	3002a073          	csrs	mstatus,t0
    8000017c:	60a2                	ld	ra,8(sp)
    8000017e:	6142                	ld	sp,16(sp)
    80000180:	61e2                	ld	gp,24(sp)
    80000182:	7202                	ld	tp,32(sp)
    80000184:	72a2                	ld	t0,40(sp)
    80000186:	7342                	ld	t1,48(sp)
    80000188:	73e2                	ld	t2,56(sp)
    8000018a:	6406                	ld	s0,64(sp)
    8000018c:	64a6                	ld	s1,72(sp)
    8000018e:	6546                	ld	a0,80(sp)
    80000190:	65e6                	ld	a1,88(sp)
    80000192:	7606                	ld	a2,96(sp)
    80000194:	76a6                	ld	a3,104(sp)
    80000196:	7746                	ld	a4,112(sp)
    80000198:	77e6                	ld	a5,120(sp)
    8000019a:	680a                	ld	a6,128(sp)
    8000019c:	68aa                	ld	a7,136(sp)
    8000019e:	694a                	ld	s2,144(sp)
    800001a0:	69ea                	ld	s3,152(sp)
    800001a2:	7a0a                	ld	s4,160(sp)
    800001a4:	7aaa                	ld	s5,168(sp)
    800001a6:	7b4a                	ld	s6,176(sp)
    800001a8:	7bea                	ld	s7,184(sp)
    800001aa:	6c0e                	ld	s8,192(sp)
    800001ac:	6cae                	ld	s9,200(sp)
    800001ae:	6d4e                	ld	s10,208(sp)
    800001b0:	6dee                	ld	s11,216(sp)
    800001b2:	7e0e                	ld	t3,224(sp)
    800001b4:	7eae                	ld	t4,232(sp)
    800001b6:	7f4e                	ld	t5,240(sp)
    800001b8:	7fee                	ld	t6,248(sp)
    800001ba:	6151                	addi	sp,sp,272
    800001bc:	30200073          	mret
    800001c0:	5501                	li	a0,-32
    800001c2:	a029                	j	800001cc <_exit>
    800001c4:	5cf040ef          	jal	ra,80004f92 <main>
    800001c8:	a011                	j	800001cc <_exit>
    800001ca:	a009                	j	800001cc <_exit>

00000000800001cc <_exit>:
    800001cc:	0506                	slli	a0,a0,0x1
    800001ce:	0505                	addi	a0,a0,1
    800001d0:	00000f17          	auipc	t5,0x0
    800001d4:	02af2823          	sw	a0,48(t5) # 80000200 <tohost>
    800001d8:	0001                	nop
    800001da:	a001                	j	800001da <_exit+0xe>
	...

Disassembly of section .text:

0000000080000288 <AES_EncryptInit>:
    80000288:	7139                	addi	sp,sp,-64
    8000028a:	fc22                	sd	s0,56(sp)
    8000028c:	0080                	addi	s0,sp,64
    8000028e:	fca43c23          	sd	a0,-40(s0)
    80000292:	fcb43823          	sd	a1,-48(s0)
    80000296:	fcc43423          	sd	a2,-56(s0)
    8000029a:	fd043783          	ld	a5,-48(s0)
    8000029e:	0007c783          	lbu	a5,0(a5)
    800002a2:	2781                	sext.w	a5,a5
    800002a4:	0187979b          	slliw	a5,a5,0x18
    800002a8:	0007871b          	sext.w	a4,a5
    800002ac:	fd043783          	ld	a5,-48(s0)
    800002b0:	0785                	addi	a5,a5,1
    800002b2:	0007c783          	lbu	a5,0(a5)
    800002b6:	2781                	sext.w	a5,a5
    800002b8:	0107979b          	slliw	a5,a5,0x10
    800002bc:	2781                	sext.w	a5,a5
    800002be:	8fb9                	xor	a5,a5,a4
    800002c0:	0007871b          	sext.w	a4,a5
    800002c4:	fd043783          	ld	a5,-48(s0)
    800002c8:	0789                	addi	a5,a5,2
    800002ca:	0007c783          	lbu	a5,0(a5)
    800002ce:	2781                	sext.w	a5,a5
    800002d0:	0087979b          	slliw	a5,a5,0x8
    800002d4:	2781                	sext.w	a5,a5
    800002d6:	8fb9                	xor	a5,a5,a4
    800002d8:	0007871b          	sext.w	a4,a5
    800002dc:	fd043783          	ld	a5,-48(s0)
    800002e0:	078d                	addi	a5,a5,3
    800002e2:	0007c783          	lbu	a5,0(a5)
    800002e6:	2781                	sext.w	a5,a5
    800002e8:	8fb9                	xor	a5,a5,a4
    800002ea:	0007871b          	sext.w	a4,a5
    800002ee:	fd843783          	ld	a5,-40(s0)
    800002f2:	c398                	sw	a4,0(a5)
    800002f4:	fd043783          	ld	a5,-48(s0)
    800002f8:	0791                	addi	a5,a5,4
    800002fa:	0007c783          	lbu	a5,0(a5)
    800002fe:	2781                	sext.w	a5,a5
    80000300:	0187979b          	slliw	a5,a5,0x18
    80000304:	0007871b          	sext.w	a4,a5
    80000308:	fd043783          	ld	a5,-48(s0)
    8000030c:	0795                	addi	a5,a5,5
    8000030e:	0007c783          	lbu	a5,0(a5)
    80000312:	2781                	sext.w	a5,a5
    80000314:	0107979b          	slliw	a5,a5,0x10
    80000318:	2781                	sext.w	a5,a5
    8000031a:	8fb9                	xor	a5,a5,a4
    8000031c:	0007871b          	sext.w	a4,a5
    80000320:	fd043783          	ld	a5,-48(s0)
    80000324:	0799                	addi	a5,a5,6
    80000326:	0007c783          	lbu	a5,0(a5)
    8000032a:	2781                	sext.w	a5,a5
    8000032c:	0087979b          	slliw	a5,a5,0x8
    80000330:	2781                	sext.w	a5,a5
    80000332:	8fb9                	xor	a5,a5,a4
    80000334:	0007871b          	sext.w	a4,a5
    80000338:	fd043783          	ld	a5,-48(s0)
    8000033c:	079d                	addi	a5,a5,7
    8000033e:	0007c783          	lbu	a5,0(a5)
    80000342:	2781                	sext.w	a5,a5
    80000344:	8fb9                	xor	a5,a5,a4
    80000346:	0007871b          	sext.w	a4,a5
    8000034a:	fd843783          	ld	a5,-40(s0)
    8000034e:	c3d8                	sw	a4,4(a5)
    80000350:	fd043783          	ld	a5,-48(s0)
    80000354:	07a1                	addi	a5,a5,8
    80000356:	0007c783          	lbu	a5,0(a5)
    8000035a:	2781                	sext.w	a5,a5
    8000035c:	0187979b          	slliw	a5,a5,0x18
    80000360:	0007871b          	sext.w	a4,a5
    80000364:	fd043783          	ld	a5,-48(s0)
    80000368:	07a5                	addi	a5,a5,9
    8000036a:	0007c783          	lbu	a5,0(a5)
    8000036e:	2781                	sext.w	a5,a5
    80000370:	0107979b          	slliw	a5,a5,0x10
    80000374:	2781                	sext.w	a5,a5
    80000376:	8fb9                	xor	a5,a5,a4
    80000378:	0007871b          	sext.w	a4,a5
    8000037c:	fd043783          	ld	a5,-48(s0)
    80000380:	07a9                	addi	a5,a5,10
    80000382:	0007c783          	lbu	a5,0(a5)
    80000386:	2781                	sext.w	a5,a5
    80000388:	0087979b          	slliw	a5,a5,0x8
    8000038c:	2781                	sext.w	a5,a5
    8000038e:	8fb9                	xor	a5,a5,a4
    80000390:	0007871b          	sext.w	a4,a5
    80000394:	fd043783          	ld	a5,-48(s0)
    80000398:	07ad                	addi	a5,a5,11
    8000039a:	0007c783          	lbu	a5,0(a5)
    8000039e:	2781                	sext.w	a5,a5
    800003a0:	8fb9                	xor	a5,a5,a4
    800003a2:	0007871b          	sext.w	a4,a5
    800003a6:	fd843783          	ld	a5,-40(s0)
    800003aa:	c798                	sw	a4,8(a5)
    800003ac:	fd043783          	ld	a5,-48(s0)
    800003b0:	07b1                	addi	a5,a5,12
    800003b2:	0007c783          	lbu	a5,0(a5)
    800003b6:	2781                	sext.w	a5,a5
    800003b8:	0187979b          	slliw	a5,a5,0x18
    800003bc:	0007871b          	sext.w	a4,a5
    800003c0:	fd043783          	ld	a5,-48(s0)
    800003c4:	07b5                	addi	a5,a5,13
    800003c6:	0007c783          	lbu	a5,0(a5)
    800003ca:	2781                	sext.w	a5,a5
    800003cc:	0107979b          	slliw	a5,a5,0x10
    800003d0:	2781                	sext.w	a5,a5
    800003d2:	8fb9                	xor	a5,a5,a4
    800003d4:	0007871b          	sext.w	a4,a5
    800003d8:	fd043783          	ld	a5,-48(s0)
    800003dc:	07b9                	addi	a5,a5,14
    800003de:	0007c783          	lbu	a5,0(a5)
    800003e2:	2781                	sext.w	a5,a5
    800003e4:	0087979b          	slliw	a5,a5,0x8
    800003e8:	2781                	sext.w	a5,a5
    800003ea:	8fb9                	xor	a5,a5,a4
    800003ec:	0007871b          	sext.w	a4,a5
    800003f0:	fd043783          	ld	a5,-48(s0)
    800003f4:	07bd                	addi	a5,a5,15
    800003f6:	0007c783          	lbu	a5,0(a5)
    800003fa:	2781                	sext.w	a5,a5
    800003fc:	8fb9                	xor	a5,a5,a4
    800003fe:	0007871b          	sext.w	a4,a5
    80000402:	fd843783          	ld	a5,-40(s0)
    80000406:	c7d8                	sw	a4,12(a5)
    80000408:	fc843783          	ld	a5,-56(s0)
    8000040c:	0007c783          	lbu	a5,0(a5)
    80000410:	2781                	sext.w	a5,a5
    80000412:	0187979b          	slliw	a5,a5,0x18
    80000416:	0007871b          	sext.w	a4,a5
    8000041a:	fc843783          	ld	a5,-56(s0)
    8000041e:	0785                	addi	a5,a5,1
    80000420:	0007c783          	lbu	a5,0(a5)
    80000424:	2781                	sext.w	a5,a5
    80000426:	0107979b          	slliw	a5,a5,0x10
    8000042a:	2781                	sext.w	a5,a5
    8000042c:	8fb9                	xor	a5,a5,a4
    8000042e:	0007871b          	sext.w	a4,a5
    80000432:	fc843783          	ld	a5,-56(s0)
    80000436:	0789                	addi	a5,a5,2
    80000438:	0007c783          	lbu	a5,0(a5)
    8000043c:	2781                	sext.w	a5,a5
    8000043e:	0087979b          	slliw	a5,a5,0x8
    80000442:	2781                	sext.w	a5,a5
    80000444:	8fb9                	xor	a5,a5,a4
    80000446:	0007871b          	sext.w	a4,a5
    8000044a:	fc843783          	ld	a5,-56(s0)
    8000044e:	078d                	addi	a5,a5,3
    80000450:	0007c783          	lbu	a5,0(a5)
    80000454:	2781                	sext.w	a5,a5
    80000456:	8fb9                	xor	a5,a5,a4
    80000458:	0007871b          	sext.w	a4,a5
    8000045c:	fd843783          	ld	a5,-40(s0)
    80000460:	0ae7a823          	sw	a4,176(a5)
    80000464:	fc843783          	ld	a5,-56(s0)
    80000468:	0791                	addi	a5,a5,4
    8000046a:	0007c783          	lbu	a5,0(a5)
    8000046e:	2781                	sext.w	a5,a5
    80000470:	0187979b          	slliw	a5,a5,0x18
    80000474:	0007871b          	sext.w	a4,a5
    80000478:	fc843783          	ld	a5,-56(s0)
    8000047c:	0795                	addi	a5,a5,5
    8000047e:	0007c783          	lbu	a5,0(a5)
    80000482:	2781                	sext.w	a5,a5
    80000484:	0107979b          	slliw	a5,a5,0x10
    80000488:	2781                	sext.w	a5,a5
    8000048a:	8fb9                	xor	a5,a5,a4
    8000048c:	0007871b          	sext.w	a4,a5
    80000490:	fc843783          	ld	a5,-56(s0)
    80000494:	0799                	addi	a5,a5,6
    80000496:	0007c783          	lbu	a5,0(a5)
    8000049a:	2781                	sext.w	a5,a5
    8000049c:	0087979b          	slliw	a5,a5,0x8
    800004a0:	2781                	sext.w	a5,a5
    800004a2:	8fb9                	xor	a5,a5,a4
    800004a4:	0007871b          	sext.w	a4,a5
    800004a8:	fc843783          	ld	a5,-56(s0)
    800004ac:	079d                	addi	a5,a5,7
    800004ae:	0007c783          	lbu	a5,0(a5)
    800004b2:	2781                	sext.w	a5,a5
    800004b4:	8fb9                	xor	a5,a5,a4
    800004b6:	0007871b          	sext.w	a4,a5
    800004ba:	fd843783          	ld	a5,-40(s0)
    800004be:	0ae7aa23          	sw	a4,180(a5)
    800004c2:	fc843783          	ld	a5,-56(s0)
    800004c6:	07a1                	addi	a5,a5,8
    800004c8:	0007c783          	lbu	a5,0(a5)
    800004cc:	2781                	sext.w	a5,a5
    800004ce:	0187979b          	slliw	a5,a5,0x18
    800004d2:	0007871b          	sext.w	a4,a5
    800004d6:	fc843783          	ld	a5,-56(s0)
    800004da:	07a5                	addi	a5,a5,9
    800004dc:	0007c783          	lbu	a5,0(a5)
    800004e0:	2781                	sext.w	a5,a5
    800004e2:	0107979b          	slliw	a5,a5,0x10
    800004e6:	2781                	sext.w	a5,a5
    800004e8:	8fb9                	xor	a5,a5,a4
    800004ea:	0007871b          	sext.w	a4,a5
    800004ee:	fc843783          	ld	a5,-56(s0)
    800004f2:	07a9                	addi	a5,a5,10
    800004f4:	0007c783          	lbu	a5,0(a5)
    800004f8:	2781                	sext.w	a5,a5
    800004fa:	0087979b          	slliw	a5,a5,0x8
    800004fe:	2781                	sext.w	a5,a5
    80000500:	8fb9                	xor	a5,a5,a4
    80000502:	0007871b          	sext.w	a4,a5
    80000506:	fc843783          	ld	a5,-56(s0)
    8000050a:	07ad                	addi	a5,a5,11
    8000050c:	0007c783          	lbu	a5,0(a5)
    80000510:	2781                	sext.w	a5,a5
    80000512:	8fb9                	xor	a5,a5,a4
    80000514:	0007871b          	sext.w	a4,a5
    80000518:	fd843783          	ld	a5,-40(s0)
    8000051c:	0ae7ac23          	sw	a4,184(a5)
    80000520:	fc843783          	ld	a5,-56(s0)
    80000524:	07b1                	addi	a5,a5,12
    80000526:	0007c783          	lbu	a5,0(a5)
    8000052a:	2781                	sext.w	a5,a5
    8000052c:	0187979b          	slliw	a5,a5,0x18
    80000530:	0007871b          	sext.w	a4,a5
    80000534:	fc843783          	ld	a5,-56(s0)
    80000538:	07b5                	addi	a5,a5,13
    8000053a:	0007c783          	lbu	a5,0(a5)
    8000053e:	2781                	sext.w	a5,a5
    80000540:	0107979b          	slliw	a5,a5,0x10
    80000544:	2781                	sext.w	a5,a5
    80000546:	8fb9                	xor	a5,a5,a4
    80000548:	0007871b          	sext.w	a4,a5
    8000054c:	fc843783          	ld	a5,-56(s0)
    80000550:	07b9                	addi	a5,a5,14
    80000552:	0007c783          	lbu	a5,0(a5)
    80000556:	2781                	sext.w	a5,a5
    80000558:	0087979b          	slliw	a5,a5,0x8
    8000055c:	2781                	sext.w	a5,a5
    8000055e:	8fb9                	xor	a5,a5,a4
    80000560:	0007871b          	sext.w	a4,a5
    80000564:	fc843783          	ld	a5,-56(s0)
    80000568:	07bd                	addi	a5,a5,15
    8000056a:	0007c783          	lbu	a5,0(a5)
    8000056e:	2781                	sext.w	a5,a5
    80000570:	8fb9                	xor	a5,a5,a4
    80000572:	0007871b          	sext.w	a4,a5
    80000576:	fd843783          	ld	a5,-40(s0)
    8000057a:	0ae7ae23          	sw	a4,188(a5)
    8000057e:	4791                	li	a5,4
    80000580:	fef407a3          	sb	a5,-17(s0)
    80000584:	a439                	j	80000792 <AES_EncryptInit+0x50a>
    80000586:	fef44783          	lbu	a5,-17(s0)
    8000058a:	2781                	sext.w	a5,a5
    8000058c:	37f1                	addiw	a5,a5,-4
    8000058e:	2781                	sext.w	a5,a5
    80000590:	fd843703          	ld	a4,-40(s0)
    80000594:	078a                	slli	a5,a5,0x2
    80000596:	97ba                	add	a5,a5,a4
    80000598:	4394                	lw	a3,0(a5)
    8000059a:	fef44783          	lbu	a5,-17(s0)
    8000059e:	2781                	sext.w	a5,a5
    800005a0:	37fd                	addiw	a5,a5,-1
    800005a2:	2781                	sext.w	a5,a5
    800005a4:	fd843703          	ld	a4,-40(s0)
    800005a8:	078a                	slli	a5,a5,0x2
    800005aa:	97ba                	add	a5,a5,a4
    800005ac:	439c                	lw	a5,0(a5)
    800005ae:	0107d79b          	srliw	a5,a5,0x10
    800005b2:	2781                	sext.w	a5,a5
    800005b4:	0ff7f793          	andi	a5,a5,255
    800005b8:	2781                	sext.w	a5,a5
    800005ba:	00007717          	auipc	a4,0x7
    800005be:	e2e70713          	addi	a4,a4,-466 # 800073e8 <Te4>
    800005c2:	1782                	slli	a5,a5,0x20
    800005c4:	9381                	srli	a5,a5,0x20
    800005c6:	078a                	slli	a5,a5,0x2
    800005c8:	97ba                	add	a5,a5,a4
    800005ca:	439c                	lw	a5,0(a5)
    800005cc:	873e                	mv	a4,a5
    800005ce:	ff0007b7          	lui	a5,0xff000
    800005d2:	8ff9                	and	a5,a5,a4
    800005d4:	2781                	sext.w	a5,a5
    800005d6:	8736                	mv	a4,a3
    800005d8:	8fb9                	xor	a5,a5,a4
    800005da:	0007869b          	sext.w	a3,a5
    800005de:	fef44783          	lbu	a5,-17(s0)
    800005e2:	2781                	sext.w	a5,a5
    800005e4:	37fd                	addiw	a5,a5,-1
    800005e6:	2781                	sext.w	a5,a5
    800005e8:	fd843703          	ld	a4,-40(s0)
    800005ec:	078a                	slli	a5,a5,0x2
    800005ee:	97ba                	add	a5,a5,a4
    800005f0:	439c                	lw	a5,0(a5)
    800005f2:	0087d79b          	srliw	a5,a5,0x8
    800005f6:	2781                	sext.w	a5,a5
    800005f8:	0ff7f793          	andi	a5,a5,255
    800005fc:	2781                	sext.w	a5,a5
    800005fe:	00007717          	auipc	a4,0x7
    80000602:	dea70713          	addi	a4,a4,-534 # 800073e8 <Te4>
    80000606:	1782                	slli	a5,a5,0x20
    80000608:	9381                	srli	a5,a5,0x20
    8000060a:	078a                	slli	a5,a5,0x2
    8000060c:	97ba                	add	a5,a5,a4
    8000060e:	439c                	lw	a5,0(a5)
    80000610:	873e                	mv	a4,a5
    80000612:	00ff07b7          	lui	a5,0xff0
    80000616:	8ff9                	and	a5,a5,a4
    80000618:	2781                	sext.w	a5,a5
    8000061a:	8736                	mv	a4,a3
    8000061c:	8fb9                	xor	a5,a5,a4
    8000061e:	0007869b          	sext.w	a3,a5
    80000622:	fef44783          	lbu	a5,-17(s0)
    80000626:	2781                	sext.w	a5,a5
    80000628:	37fd                	addiw	a5,a5,-1
    8000062a:	2781                	sext.w	a5,a5
    8000062c:	fd843703          	ld	a4,-40(s0)
    80000630:	078a                	slli	a5,a5,0x2
    80000632:	97ba                	add	a5,a5,a4
    80000634:	439c                	lw	a5,0(a5)
    80000636:	0ff7f793          	andi	a5,a5,255
    8000063a:	2781                	sext.w	a5,a5
    8000063c:	00007717          	auipc	a4,0x7
    80000640:	dac70713          	addi	a4,a4,-596 # 800073e8 <Te4>
    80000644:	1782                	slli	a5,a5,0x20
    80000646:	9381                	srli	a5,a5,0x20
    80000648:	078a                	slli	a5,a5,0x2
    8000064a:	97ba                	add	a5,a5,a4
    8000064c:	439c                	lw	a5,0(a5)
    8000064e:	873e                	mv	a4,a5
    80000650:	67c1                	lui	a5,0x10
    80000652:	f0078793          	addi	a5,a5,-256 # ff00 <buflen.2+0xfe80>
    80000656:	8ff9                	and	a5,a5,a4
    80000658:	2781                	sext.w	a5,a5
    8000065a:	8736                	mv	a4,a3
    8000065c:	8fb9                	xor	a5,a5,a4
    8000065e:	0007869b          	sext.w	a3,a5
    80000662:	fef44783          	lbu	a5,-17(s0)
    80000666:	2781                	sext.w	a5,a5
    80000668:	37fd                	addiw	a5,a5,-1
    8000066a:	2781                	sext.w	a5,a5
    8000066c:	fd843703          	ld	a4,-40(s0)
    80000670:	078a                	slli	a5,a5,0x2
    80000672:	97ba                	add	a5,a5,a4
    80000674:	439c                	lw	a5,0(a5)
    80000676:	0187d79b          	srliw	a5,a5,0x18
    8000067a:	2781                	sext.w	a5,a5
    8000067c:	00007717          	auipc	a4,0x7
    80000680:	d6c70713          	addi	a4,a4,-660 # 800073e8 <Te4>
    80000684:	1782                	slli	a5,a5,0x20
    80000686:	9381                	srli	a5,a5,0x20
    80000688:	078a                	slli	a5,a5,0x2
    8000068a:	97ba                	add	a5,a5,a4
    8000068c:	439c                	lw	a5,0(a5)
    8000068e:	0ff7f793          	andi	a5,a5,255
    80000692:	2781                	sext.w	a5,a5
    80000694:	8736                	mv	a4,a3
    80000696:	8fb9                	xor	a5,a5,a4
    80000698:	0007869b          	sext.w	a3,a5
    8000069c:	fef44783          	lbu	a5,-17(s0)
    800006a0:	0027d79b          	srliw	a5,a5,0x2
    800006a4:	0ff7f793          	andi	a5,a5,255
    800006a8:	2781                	sext.w	a5,a5
    800006aa:	37fd                	addiw	a5,a5,-1
    800006ac:	2781                	sext.w	a5,a5
    800006ae:	8e818713          	addi	a4,gp,-1816 # 80008be8 <rcon>
    800006b2:	078a                	slli	a5,a5,0x2
    800006b4:	97ba                	add	a5,a5,a4
    800006b6:	4398                	lw	a4,0(a5)
    800006b8:	fef44783          	lbu	a5,-17(s0)
    800006bc:	2781                	sext.w	a5,a5
    800006be:	8f35                	xor	a4,a4,a3
    800006c0:	2701                	sext.w	a4,a4
    800006c2:	fd843683          	ld	a3,-40(s0)
    800006c6:	078a                	slli	a5,a5,0x2
    800006c8:	97b6                	add	a5,a5,a3
    800006ca:	c398                	sw	a4,0(a5)
    800006cc:	fef44783          	lbu	a5,-17(s0)
    800006d0:	2781                	sext.w	a5,a5
    800006d2:	37f5                	addiw	a5,a5,-3
    800006d4:	2781                	sext.w	a5,a5
    800006d6:	fd843703          	ld	a4,-40(s0)
    800006da:	078a                	slli	a5,a5,0x2
    800006dc:	97ba                	add	a5,a5,a4
    800006de:	4394                	lw	a3,0(a5)
    800006e0:	fef44783          	lbu	a5,-17(s0)
    800006e4:	2781                	sext.w	a5,a5
    800006e6:	fd843703          	ld	a4,-40(s0)
    800006ea:	078a                	slli	a5,a5,0x2
    800006ec:	97ba                	add	a5,a5,a4
    800006ee:	4398                	lw	a4,0(a5)
    800006f0:	fef44783          	lbu	a5,-17(s0)
    800006f4:	2781                	sext.w	a5,a5
    800006f6:	2785                	addiw	a5,a5,1
    800006f8:	2781                	sext.w	a5,a5
    800006fa:	8f35                	xor	a4,a4,a3
    800006fc:	2701                	sext.w	a4,a4
    800006fe:	fd843683          	ld	a3,-40(s0)
    80000702:	078a                	slli	a5,a5,0x2
    80000704:	97b6                	add	a5,a5,a3
    80000706:	c398                	sw	a4,0(a5)
    80000708:	fef44783          	lbu	a5,-17(s0)
    8000070c:	2781                	sext.w	a5,a5
    8000070e:	37f9                	addiw	a5,a5,-2
    80000710:	2781                	sext.w	a5,a5
    80000712:	fd843703          	ld	a4,-40(s0)
    80000716:	078a                	slli	a5,a5,0x2
    80000718:	97ba                	add	a5,a5,a4
    8000071a:	4394                	lw	a3,0(a5)
    8000071c:	fef44783          	lbu	a5,-17(s0)
    80000720:	2781                	sext.w	a5,a5
    80000722:	2785                	addiw	a5,a5,1
    80000724:	2781                	sext.w	a5,a5
    80000726:	fd843703          	ld	a4,-40(s0)
    8000072a:	078a                	slli	a5,a5,0x2
    8000072c:	97ba                	add	a5,a5,a4
    8000072e:	4398                	lw	a4,0(a5)
    80000730:	fef44783          	lbu	a5,-17(s0)
    80000734:	2781                	sext.w	a5,a5
    80000736:	2789                	addiw	a5,a5,2
    80000738:	2781                	sext.w	a5,a5
    8000073a:	8f35                	xor	a4,a4,a3
    8000073c:	2701                	sext.w	a4,a4
    8000073e:	fd843683          	ld	a3,-40(s0)
    80000742:	078a                	slli	a5,a5,0x2
    80000744:	97b6                	add	a5,a5,a3
    80000746:	c398                	sw	a4,0(a5)
    80000748:	fef44783          	lbu	a5,-17(s0)
    8000074c:	2781                	sext.w	a5,a5
    8000074e:	37fd                	addiw	a5,a5,-1
    80000750:	2781                	sext.w	a5,a5
    80000752:	fd843703          	ld	a4,-40(s0)
    80000756:	078a                	slli	a5,a5,0x2
    80000758:	97ba                	add	a5,a5,a4
    8000075a:	4394                	lw	a3,0(a5)
    8000075c:	fef44783          	lbu	a5,-17(s0)
    80000760:	2781                	sext.w	a5,a5
    80000762:	2789                	addiw	a5,a5,2
    80000764:	2781                	sext.w	a5,a5
    80000766:	fd843703          	ld	a4,-40(s0)
    8000076a:	078a                	slli	a5,a5,0x2
    8000076c:	97ba                	add	a5,a5,a4
    8000076e:	4398                	lw	a4,0(a5)
    80000770:	fef44783          	lbu	a5,-17(s0)
    80000774:	2781                	sext.w	a5,a5
    80000776:	278d                	addiw	a5,a5,3
    80000778:	2781                	sext.w	a5,a5
    8000077a:	8f35                	xor	a4,a4,a3
    8000077c:	2701                	sext.w	a4,a4
    8000077e:	fd843683          	ld	a3,-40(s0)
    80000782:	078a                	slli	a5,a5,0x2
    80000784:	97b6                	add	a5,a5,a3
    80000786:	c398                	sw	a4,0(a5)
    80000788:	fef44783          	lbu	a5,-17(s0)
    8000078c:	2791                	addiw	a5,a5,4
    8000078e:	fef407a3          	sb	a5,-17(s0)
    80000792:	fef44783          	lbu	a5,-17(s0)
    80000796:	0ff7f713          	andi	a4,a5,255
    8000079a:	02b00793          	li	a5,43
    8000079e:	dee7f4e3          	bleu	a4,a5,80000586 <AES_EncryptInit+0x2fe>
    800007a2:	0001                	nop
    800007a4:	0001                	nop
    800007a6:	7462                	ld	s0,56(sp)
    800007a8:	6121                	addi	sp,sp,64
    800007aa:	8082                	ret

00000000800007ac <AES_DecryptInit>:
    800007ac:	7139                	addi	sp,sp,-64
    800007ae:	fc06                	sd	ra,56(sp)
    800007b0:	f822                	sd	s0,48(sp)
    800007b2:	0080                	addi	s0,sp,64
    800007b4:	fca43c23          	sd	a0,-40(s0)
    800007b8:	fcb43823          	sd	a1,-48(s0)
    800007bc:	fcc43423          	sd	a2,-56(s0)
    800007c0:	fc843603          	ld	a2,-56(s0)
    800007c4:	fd043583          	ld	a1,-48(s0)
    800007c8:	fd843503          	ld	a0,-40(s0)
    800007cc:	abdff0ef          	jal	ra,80000288 <AES_EncryptInit>
    800007d0:	fe0407a3          	sb	zero,-17(s0)
    800007d4:	02800793          	li	a5,40
    800007d8:	fef40723          	sb	a5,-18(s0)
    800007dc:	a07d                	j	8000088a <AES_DecryptInit+0xde>
    800007de:	fe0406a3          	sb	zero,-19(s0)
    800007e2:	a059                	j	80000868 <AES_DecryptInit+0xbc>
    800007e4:	fef44783          	lbu	a5,-17(s0)
    800007e8:	0007871b          	sext.w	a4,a5
    800007ec:	fed44783          	lbu	a5,-19(s0)
    800007f0:	2781                	sext.w	a5,a5
    800007f2:	9fb9                	addw	a5,a5,a4
    800007f4:	2781                	sext.w	a5,a5
    800007f6:	fd843703          	ld	a4,-40(s0)
    800007fa:	078a                	slli	a5,a5,0x2
    800007fc:	97ba                	add	a5,a5,a4
    800007fe:	439c                	lw	a5,0(a5)
    80000800:	fef42423          	sw	a5,-24(s0)
    80000804:	fee44783          	lbu	a5,-18(s0)
    80000808:	0007871b          	sext.w	a4,a5
    8000080c:	fed44783          	lbu	a5,-19(s0)
    80000810:	2781                	sext.w	a5,a5
    80000812:	9fb9                	addw	a5,a5,a4
    80000814:	0007871b          	sext.w	a4,a5
    80000818:	fef44783          	lbu	a5,-17(s0)
    8000081c:	0007869b          	sext.w	a3,a5
    80000820:	fed44783          	lbu	a5,-19(s0)
    80000824:	2781                	sext.w	a5,a5
    80000826:	9fb5                	addw	a5,a5,a3
    80000828:	2781                	sext.w	a5,a5
    8000082a:	fd843683          	ld	a3,-40(s0)
    8000082e:	070a                	slli	a4,a4,0x2
    80000830:	9736                	add	a4,a4,a3
    80000832:	4318                	lw	a4,0(a4)
    80000834:	fd843683          	ld	a3,-40(s0)
    80000838:	078a                	slli	a5,a5,0x2
    8000083a:	97b6                	add	a5,a5,a3
    8000083c:	c398                	sw	a4,0(a5)
    8000083e:	fee44783          	lbu	a5,-18(s0)
    80000842:	0007871b          	sext.w	a4,a5
    80000846:	fed44783          	lbu	a5,-19(s0)
    8000084a:	2781                	sext.w	a5,a5
    8000084c:	9fb9                	addw	a5,a5,a4
    8000084e:	2781                	sext.w	a5,a5
    80000850:	fd843703          	ld	a4,-40(s0)
    80000854:	078a                	slli	a5,a5,0x2
    80000856:	97ba                	add	a5,a5,a4
    80000858:	fe842703          	lw	a4,-24(s0)
    8000085c:	c398                	sw	a4,0(a5)
    8000085e:	fed44783          	lbu	a5,-19(s0)
    80000862:	2785                	addiw	a5,a5,1
    80000864:	fef406a3          	sb	a5,-19(s0)
    80000868:	fed44783          	lbu	a5,-19(s0)
    8000086c:	0ff7f713          	andi	a4,a5,255
    80000870:	478d                	li	a5,3
    80000872:	f6e7f9e3          	bleu	a4,a5,800007e4 <AES_DecryptInit+0x38>
    80000876:	fef44783          	lbu	a5,-17(s0)
    8000087a:	2791                	addiw	a5,a5,4
    8000087c:	fef407a3          	sb	a5,-17(s0)
    80000880:	fee44783          	lbu	a5,-18(s0)
    80000884:	37f1                	addiw	a5,a5,-4
    80000886:	fef40723          	sb	a5,-18(s0)
    8000088a:	fef44783          	lbu	a5,-17(s0)
    8000088e:	873e                	mv	a4,a5
    80000890:	fee44783          	lbu	a5,-18(s0)
    80000894:	0ff77713          	andi	a4,a4,255
    80000898:	0ff7f793          	andi	a5,a5,255
    8000089c:	f4f761e3          	bltu	a4,a5,800007de <AES_DecryptInit+0x32>
    800008a0:	4791                	li	a5,4
    800008a2:	fef40623          	sb	a5,-20(s0)
    800008a6:	a321                	j	80000dae <AES_DecryptInit+0x602>
    800008a8:	fec44783          	lbu	a5,-20(s0)
    800008ac:	2781                	sext.w	a5,a5
    800008ae:	fd843703          	ld	a4,-40(s0)
    800008b2:	078a                	slli	a5,a5,0x2
    800008b4:	97ba                	add	a5,a5,a4
    800008b6:	439c                	lw	a5,0(a5)
    800008b8:	0187d79b          	srliw	a5,a5,0x18
    800008bc:	2781                	sext.w	a5,a5
    800008be:	00007717          	auipc	a4,0x7
    800008c2:	b2a70713          	addi	a4,a4,-1238 # 800073e8 <Te4>
    800008c6:	1782                	slli	a5,a5,0x20
    800008c8:	9381                	srli	a5,a5,0x20
    800008ca:	078a                	slli	a5,a5,0x2
    800008cc:	97ba                	add	a5,a5,a4
    800008ce:	439c                	lw	a5,0(a5)
    800008d0:	0ff7f793          	andi	a5,a5,255
    800008d4:	2781                	sext.w	a5,a5
    800008d6:	00007717          	auipc	a4,0x7
    800008da:	f1270713          	addi	a4,a4,-238 # 800077e8 <Td0>
    800008de:	1782                	slli	a5,a5,0x20
    800008e0:	9381                	srli	a5,a5,0x20
    800008e2:	078a                	slli	a5,a5,0x2
    800008e4:	97ba                	add	a5,a5,a4
    800008e6:	4394                	lw	a3,0(a5)
    800008e8:	fec44783          	lbu	a5,-20(s0)
    800008ec:	2781                	sext.w	a5,a5
    800008ee:	fd843703          	ld	a4,-40(s0)
    800008f2:	078a                	slli	a5,a5,0x2
    800008f4:	97ba                	add	a5,a5,a4
    800008f6:	439c                	lw	a5,0(a5)
    800008f8:	0107d79b          	srliw	a5,a5,0x10
    800008fc:	2781                	sext.w	a5,a5
    800008fe:	0ff7f793          	andi	a5,a5,255
    80000902:	2781                	sext.w	a5,a5
    80000904:	00007717          	auipc	a4,0x7
    80000908:	ae470713          	addi	a4,a4,-1308 # 800073e8 <Te4>
    8000090c:	1782                	slli	a5,a5,0x20
    8000090e:	9381                	srli	a5,a5,0x20
    80000910:	078a                	slli	a5,a5,0x2
    80000912:	97ba                	add	a5,a5,a4
    80000914:	439c                	lw	a5,0(a5)
    80000916:	0ff7f793          	andi	a5,a5,255
    8000091a:	2781                	sext.w	a5,a5
    8000091c:	00007717          	auipc	a4,0x7
    80000920:	2cc70713          	addi	a4,a4,716 # 80007be8 <Td1>
    80000924:	1782                	slli	a5,a5,0x20
    80000926:	9381                	srli	a5,a5,0x20
    80000928:	078a                	slli	a5,a5,0x2
    8000092a:	97ba                	add	a5,a5,a4
    8000092c:	439c                	lw	a5,0(a5)
    8000092e:	8736                	mv	a4,a3
    80000930:	8fb9                	xor	a5,a5,a4
    80000932:	0007869b          	sext.w	a3,a5
    80000936:	fec44783          	lbu	a5,-20(s0)
    8000093a:	2781                	sext.w	a5,a5
    8000093c:	fd843703          	ld	a4,-40(s0)
    80000940:	078a                	slli	a5,a5,0x2
    80000942:	97ba                	add	a5,a5,a4
    80000944:	439c                	lw	a5,0(a5)
    80000946:	0087d79b          	srliw	a5,a5,0x8
    8000094a:	2781                	sext.w	a5,a5
    8000094c:	0ff7f793          	andi	a5,a5,255
    80000950:	2781                	sext.w	a5,a5
    80000952:	00007717          	auipc	a4,0x7
    80000956:	a9670713          	addi	a4,a4,-1386 # 800073e8 <Te4>
    8000095a:	1782                	slli	a5,a5,0x20
    8000095c:	9381                	srli	a5,a5,0x20
    8000095e:	078a                	slli	a5,a5,0x2
    80000960:	97ba                	add	a5,a5,a4
    80000962:	439c                	lw	a5,0(a5)
    80000964:	0ff7f793          	andi	a5,a5,255
    80000968:	2781                	sext.w	a5,a5
    8000096a:	00007717          	auipc	a4,0x7
    8000096e:	67e70713          	addi	a4,a4,1662 # 80007fe8 <Td2>
    80000972:	1782                	slli	a5,a5,0x20
    80000974:	9381                	srli	a5,a5,0x20
    80000976:	078a                	slli	a5,a5,0x2
    80000978:	97ba                	add	a5,a5,a4
    8000097a:	439c                	lw	a5,0(a5)
    8000097c:	8736                	mv	a4,a3
    8000097e:	8fb9                	xor	a5,a5,a4
    80000980:	0007869b          	sext.w	a3,a5
    80000984:	fec44783          	lbu	a5,-20(s0)
    80000988:	2781                	sext.w	a5,a5
    8000098a:	fd843703          	ld	a4,-40(s0)
    8000098e:	078a                	slli	a5,a5,0x2
    80000990:	97ba                	add	a5,a5,a4
    80000992:	439c                	lw	a5,0(a5)
    80000994:	0ff7f793          	andi	a5,a5,255
    80000998:	2781                	sext.w	a5,a5
    8000099a:	00007717          	auipc	a4,0x7
    8000099e:	a4e70713          	addi	a4,a4,-1458 # 800073e8 <Te4>
    800009a2:	1782                	slli	a5,a5,0x20
    800009a4:	9381                	srli	a5,a5,0x20
    800009a6:	078a                	slli	a5,a5,0x2
    800009a8:	97ba                	add	a5,a5,a4
    800009aa:	439c                	lw	a5,0(a5)
    800009ac:	0ff7f793          	andi	a5,a5,255
    800009b0:	2781                	sext.w	a5,a5
    800009b2:	00008717          	auipc	a4,0x8
    800009b6:	a3670713          	addi	a4,a4,-1482 # 800083e8 <Td3>
    800009ba:	1782                	slli	a5,a5,0x20
    800009bc:	9381                	srli	a5,a5,0x20
    800009be:	078a                	slli	a5,a5,0x2
    800009c0:	97ba                	add	a5,a5,a4
    800009c2:	4398                	lw	a4,0(a5)
    800009c4:	fec44783          	lbu	a5,-20(s0)
    800009c8:	2781                	sext.w	a5,a5
    800009ca:	8f35                	xor	a4,a4,a3
    800009cc:	2701                	sext.w	a4,a4
    800009ce:	fd843683          	ld	a3,-40(s0)
    800009d2:	078a                	slli	a5,a5,0x2
    800009d4:	97b6                	add	a5,a5,a3
    800009d6:	c398                	sw	a4,0(a5)
    800009d8:	fec44783          	lbu	a5,-20(s0)
    800009dc:	2781                	sext.w	a5,a5
    800009de:	2785                	addiw	a5,a5,1
    800009e0:	2781                	sext.w	a5,a5
    800009e2:	fd843703          	ld	a4,-40(s0)
    800009e6:	078a                	slli	a5,a5,0x2
    800009e8:	97ba                	add	a5,a5,a4
    800009ea:	439c                	lw	a5,0(a5)
    800009ec:	0187d79b          	srliw	a5,a5,0x18
    800009f0:	2781                	sext.w	a5,a5
    800009f2:	00007717          	auipc	a4,0x7
    800009f6:	9f670713          	addi	a4,a4,-1546 # 800073e8 <Te4>
    800009fa:	1782                	slli	a5,a5,0x20
    800009fc:	9381                	srli	a5,a5,0x20
    800009fe:	078a                	slli	a5,a5,0x2
    80000a00:	97ba                	add	a5,a5,a4
    80000a02:	439c                	lw	a5,0(a5)
    80000a04:	0ff7f793          	andi	a5,a5,255
    80000a08:	2781                	sext.w	a5,a5
    80000a0a:	00007717          	auipc	a4,0x7
    80000a0e:	dde70713          	addi	a4,a4,-546 # 800077e8 <Td0>
    80000a12:	1782                	slli	a5,a5,0x20
    80000a14:	9381                	srli	a5,a5,0x20
    80000a16:	078a                	slli	a5,a5,0x2
    80000a18:	97ba                	add	a5,a5,a4
    80000a1a:	4394                	lw	a3,0(a5)
    80000a1c:	fec44783          	lbu	a5,-20(s0)
    80000a20:	2781                	sext.w	a5,a5
    80000a22:	2785                	addiw	a5,a5,1
    80000a24:	2781                	sext.w	a5,a5
    80000a26:	fd843703          	ld	a4,-40(s0)
    80000a2a:	078a                	slli	a5,a5,0x2
    80000a2c:	97ba                	add	a5,a5,a4
    80000a2e:	439c                	lw	a5,0(a5)
    80000a30:	0107d79b          	srliw	a5,a5,0x10
    80000a34:	2781                	sext.w	a5,a5
    80000a36:	0ff7f793          	andi	a5,a5,255
    80000a3a:	2781                	sext.w	a5,a5
    80000a3c:	00007717          	auipc	a4,0x7
    80000a40:	9ac70713          	addi	a4,a4,-1620 # 800073e8 <Te4>
    80000a44:	1782                	slli	a5,a5,0x20
    80000a46:	9381                	srli	a5,a5,0x20
    80000a48:	078a                	slli	a5,a5,0x2
    80000a4a:	97ba                	add	a5,a5,a4
    80000a4c:	439c                	lw	a5,0(a5)
    80000a4e:	0ff7f793          	andi	a5,a5,255
    80000a52:	2781                	sext.w	a5,a5
    80000a54:	00007717          	auipc	a4,0x7
    80000a58:	19470713          	addi	a4,a4,404 # 80007be8 <Td1>
    80000a5c:	1782                	slli	a5,a5,0x20
    80000a5e:	9381                	srli	a5,a5,0x20
    80000a60:	078a                	slli	a5,a5,0x2
    80000a62:	97ba                	add	a5,a5,a4
    80000a64:	439c                	lw	a5,0(a5)
    80000a66:	8736                	mv	a4,a3
    80000a68:	8fb9                	xor	a5,a5,a4
    80000a6a:	0007869b          	sext.w	a3,a5
    80000a6e:	fec44783          	lbu	a5,-20(s0)
    80000a72:	2781                	sext.w	a5,a5
    80000a74:	2785                	addiw	a5,a5,1
    80000a76:	2781                	sext.w	a5,a5
    80000a78:	fd843703          	ld	a4,-40(s0)
    80000a7c:	078a                	slli	a5,a5,0x2
    80000a7e:	97ba                	add	a5,a5,a4
    80000a80:	439c                	lw	a5,0(a5)
    80000a82:	0087d79b          	srliw	a5,a5,0x8
    80000a86:	2781                	sext.w	a5,a5
    80000a88:	0ff7f793          	andi	a5,a5,255
    80000a8c:	2781                	sext.w	a5,a5
    80000a8e:	00007717          	auipc	a4,0x7
    80000a92:	95a70713          	addi	a4,a4,-1702 # 800073e8 <Te4>
    80000a96:	1782                	slli	a5,a5,0x20
    80000a98:	9381                	srli	a5,a5,0x20
    80000a9a:	078a                	slli	a5,a5,0x2
    80000a9c:	97ba                	add	a5,a5,a4
    80000a9e:	439c                	lw	a5,0(a5)
    80000aa0:	0ff7f793          	andi	a5,a5,255
    80000aa4:	2781                	sext.w	a5,a5
    80000aa6:	00007717          	auipc	a4,0x7
    80000aaa:	54270713          	addi	a4,a4,1346 # 80007fe8 <Td2>
    80000aae:	1782                	slli	a5,a5,0x20
    80000ab0:	9381                	srli	a5,a5,0x20
    80000ab2:	078a                	slli	a5,a5,0x2
    80000ab4:	97ba                	add	a5,a5,a4
    80000ab6:	439c                	lw	a5,0(a5)
    80000ab8:	8736                	mv	a4,a3
    80000aba:	8fb9                	xor	a5,a5,a4
    80000abc:	0007869b          	sext.w	a3,a5
    80000ac0:	fec44783          	lbu	a5,-20(s0)
    80000ac4:	2781                	sext.w	a5,a5
    80000ac6:	2785                	addiw	a5,a5,1
    80000ac8:	2781                	sext.w	a5,a5
    80000aca:	fd843703          	ld	a4,-40(s0)
    80000ace:	078a                	slli	a5,a5,0x2
    80000ad0:	97ba                	add	a5,a5,a4
    80000ad2:	439c                	lw	a5,0(a5)
    80000ad4:	0ff7f793          	andi	a5,a5,255
    80000ad8:	2781                	sext.w	a5,a5
    80000ada:	00007717          	auipc	a4,0x7
    80000ade:	90e70713          	addi	a4,a4,-1778 # 800073e8 <Te4>
    80000ae2:	1782                	slli	a5,a5,0x20
    80000ae4:	9381                	srli	a5,a5,0x20
    80000ae6:	078a                	slli	a5,a5,0x2
    80000ae8:	97ba                	add	a5,a5,a4
    80000aea:	439c                	lw	a5,0(a5)
    80000aec:	0ff7f793          	andi	a5,a5,255
    80000af0:	2781                	sext.w	a5,a5
    80000af2:	00008717          	auipc	a4,0x8
    80000af6:	8f670713          	addi	a4,a4,-1802 # 800083e8 <Td3>
    80000afa:	1782                	slli	a5,a5,0x20
    80000afc:	9381                	srli	a5,a5,0x20
    80000afe:	078a                	slli	a5,a5,0x2
    80000b00:	97ba                	add	a5,a5,a4
    80000b02:	4398                	lw	a4,0(a5)
    80000b04:	fec44783          	lbu	a5,-20(s0)
    80000b08:	2781                	sext.w	a5,a5
    80000b0a:	2785                	addiw	a5,a5,1
    80000b0c:	2781                	sext.w	a5,a5
    80000b0e:	8f35                	xor	a4,a4,a3
    80000b10:	2701                	sext.w	a4,a4
    80000b12:	fd843683          	ld	a3,-40(s0)
    80000b16:	078a                	slli	a5,a5,0x2
    80000b18:	97b6                	add	a5,a5,a3
    80000b1a:	c398                	sw	a4,0(a5)
    80000b1c:	fec44783          	lbu	a5,-20(s0)
    80000b20:	2781                	sext.w	a5,a5
    80000b22:	2789                	addiw	a5,a5,2
    80000b24:	2781                	sext.w	a5,a5
    80000b26:	fd843703          	ld	a4,-40(s0)
    80000b2a:	078a                	slli	a5,a5,0x2
    80000b2c:	97ba                	add	a5,a5,a4
    80000b2e:	439c                	lw	a5,0(a5)
    80000b30:	0187d79b          	srliw	a5,a5,0x18
    80000b34:	2781                	sext.w	a5,a5
    80000b36:	00007717          	auipc	a4,0x7
    80000b3a:	8b270713          	addi	a4,a4,-1870 # 800073e8 <Te4>
    80000b3e:	1782                	slli	a5,a5,0x20
    80000b40:	9381                	srli	a5,a5,0x20
    80000b42:	078a                	slli	a5,a5,0x2
    80000b44:	97ba                	add	a5,a5,a4
    80000b46:	439c                	lw	a5,0(a5)
    80000b48:	0ff7f793          	andi	a5,a5,255
    80000b4c:	2781                	sext.w	a5,a5
    80000b4e:	00007717          	auipc	a4,0x7
    80000b52:	c9a70713          	addi	a4,a4,-870 # 800077e8 <Td0>
    80000b56:	1782                	slli	a5,a5,0x20
    80000b58:	9381                	srli	a5,a5,0x20
    80000b5a:	078a                	slli	a5,a5,0x2
    80000b5c:	97ba                	add	a5,a5,a4
    80000b5e:	4394                	lw	a3,0(a5)
    80000b60:	fec44783          	lbu	a5,-20(s0)
    80000b64:	2781                	sext.w	a5,a5
    80000b66:	2789                	addiw	a5,a5,2
    80000b68:	2781                	sext.w	a5,a5
    80000b6a:	fd843703          	ld	a4,-40(s0)
    80000b6e:	078a                	slli	a5,a5,0x2
    80000b70:	97ba                	add	a5,a5,a4
    80000b72:	439c                	lw	a5,0(a5)
    80000b74:	0107d79b          	srliw	a5,a5,0x10
    80000b78:	2781                	sext.w	a5,a5
    80000b7a:	0ff7f793          	andi	a5,a5,255
    80000b7e:	2781                	sext.w	a5,a5
    80000b80:	00007717          	auipc	a4,0x7
    80000b84:	86870713          	addi	a4,a4,-1944 # 800073e8 <Te4>
    80000b88:	1782                	slli	a5,a5,0x20
    80000b8a:	9381                	srli	a5,a5,0x20
    80000b8c:	078a                	slli	a5,a5,0x2
    80000b8e:	97ba                	add	a5,a5,a4
    80000b90:	439c                	lw	a5,0(a5)
    80000b92:	0ff7f793          	andi	a5,a5,255
    80000b96:	2781                	sext.w	a5,a5
    80000b98:	00007717          	auipc	a4,0x7
    80000b9c:	05070713          	addi	a4,a4,80 # 80007be8 <Td1>
    80000ba0:	1782                	slli	a5,a5,0x20
    80000ba2:	9381                	srli	a5,a5,0x20
    80000ba4:	078a                	slli	a5,a5,0x2
    80000ba6:	97ba                	add	a5,a5,a4
    80000ba8:	439c                	lw	a5,0(a5)
    80000baa:	8736                	mv	a4,a3
    80000bac:	8fb9                	xor	a5,a5,a4
    80000bae:	0007869b          	sext.w	a3,a5
    80000bb2:	fec44783          	lbu	a5,-20(s0)
    80000bb6:	2781                	sext.w	a5,a5
    80000bb8:	2789                	addiw	a5,a5,2
    80000bba:	2781                	sext.w	a5,a5
    80000bbc:	fd843703          	ld	a4,-40(s0)
    80000bc0:	078a                	slli	a5,a5,0x2
    80000bc2:	97ba                	add	a5,a5,a4
    80000bc4:	439c                	lw	a5,0(a5)
    80000bc6:	0087d79b          	srliw	a5,a5,0x8
    80000bca:	2781                	sext.w	a5,a5
    80000bcc:	0ff7f793          	andi	a5,a5,255
    80000bd0:	2781                	sext.w	a5,a5
    80000bd2:	00007717          	auipc	a4,0x7
    80000bd6:	81670713          	addi	a4,a4,-2026 # 800073e8 <Te4>
    80000bda:	1782                	slli	a5,a5,0x20
    80000bdc:	9381                	srli	a5,a5,0x20
    80000bde:	078a                	slli	a5,a5,0x2
    80000be0:	97ba                	add	a5,a5,a4
    80000be2:	439c                	lw	a5,0(a5)
    80000be4:	0ff7f793          	andi	a5,a5,255
    80000be8:	2781                	sext.w	a5,a5
    80000bea:	00007717          	auipc	a4,0x7
    80000bee:	3fe70713          	addi	a4,a4,1022 # 80007fe8 <Td2>
    80000bf2:	1782                	slli	a5,a5,0x20
    80000bf4:	9381                	srli	a5,a5,0x20
    80000bf6:	078a                	slli	a5,a5,0x2
    80000bf8:	97ba                	add	a5,a5,a4
    80000bfa:	439c                	lw	a5,0(a5)
    80000bfc:	8736                	mv	a4,a3
    80000bfe:	8fb9                	xor	a5,a5,a4
    80000c00:	0007869b          	sext.w	a3,a5
    80000c04:	fec44783          	lbu	a5,-20(s0)
    80000c08:	2781                	sext.w	a5,a5
    80000c0a:	2789                	addiw	a5,a5,2
    80000c0c:	2781                	sext.w	a5,a5
    80000c0e:	fd843703          	ld	a4,-40(s0)
    80000c12:	078a                	slli	a5,a5,0x2
    80000c14:	97ba                	add	a5,a5,a4
    80000c16:	439c                	lw	a5,0(a5)
    80000c18:	0ff7f793          	andi	a5,a5,255
    80000c1c:	2781                	sext.w	a5,a5
    80000c1e:	00006717          	auipc	a4,0x6
    80000c22:	7ca70713          	addi	a4,a4,1994 # 800073e8 <Te4>
    80000c26:	1782                	slli	a5,a5,0x20
    80000c28:	9381                	srli	a5,a5,0x20
    80000c2a:	078a                	slli	a5,a5,0x2
    80000c2c:	97ba                	add	a5,a5,a4
    80000c2e:	439c                	lw	a5,0(a5)
    80000c30:	0ff7f793          	andi	a5,a5,255
    80000c34:	2781                	sext.w	a5,a5
    80000c36:	00007717          	auipc	a4,0x7
    80000c3a:	7b270713          	addi	a4,a4,1970 # 800083e8 <Td3>
    80000c3e:	1782                	slli	a5,a5,0x20
    80000c40:	9381                	srli	a5,a5,0x20
    80000c42:	078a                	slli	a5,a5,0x2
    80000c44:	97ba                	add	a5,a5,a4
    80000c46:	4398                	lw	a4,0(a5)
    80000c48:	fec44783          	lbu	a5,-20(s0)
    80000c4c:	2781                	sext.w	a5,a5
    80000c4e:	2789                	addiw	a5,a5,2
    80000c50:	2781                	sext.w	a5,a5
    80000c52:	8f35                	xor	a4,a4,a3
    80000c54:	2701                	sext.w	a4,a4
    80000c56:	fd843683          	ld	a3,-40(s0)
    80000c5a:	078a                	slli	a5,a5,0x2
    80000c5c:	97b6                	add	a5,a5,a3
    80000c5e:	c398                	sw	a4,0(a5)
    80000c60:	fec44783          	lbu	a5,-20(s0)
    80000c64:	2781                	sext.w	a5,a5
    80000c66:	278d                	addiw	a5,a5,3
    80000c68:	2781                	sext.w	a5,a5
    80000c6a:	fd843703          	ld	a4,-40(s0)
    80000c6e:	078a                	slli	a5,a5,0x2
    80000c70:	97ba                	add	a5,a5,a4
    80000c72:	439c                	lw	a5,0(a5)
    80000c74:	0187d79b          	srliw	a5,a5,0x18
    80000c78:	2781                	sext.w	a5,a5
    80000c7a:	00006717          	auipc	a4,0x6
    80000c7e:	76e70713          	addi	a4,a4,1902 # 800073e8 <Te4>
    80000c82:	1782                	slli	a5,a5,0x20
    80000c84:	9381                	srli	a5,a5,0x20
    80000c86:	078a                	slli	a5,a5,0x2
    80000c88:	97ba                	add	a5,a5,a4
    80000c8a:	439c                	lw	a5,0(a5)
    80000c8c:	0ff7f793          	andi	a5,a5,255
    80000c90:	2781                	sext.w	a5,a5
    80000c92:	00007717          	auipc	a4,0x7
    80000c96:	b5670713          	addi	a4,a4,-1194 # 800077e8 <Td0>
    80000c9a:	1782                	slli	a5,a5,0x20
    80000c9c:	9381                	srli	a5,a5,0x20
    80000c9e:	078a                	slli	a5,a5,0x2
    80000ca0:	97ba                	add	a5,a5,a4
    80000ca2:	4394                	lw	a3,0(a5)
    80000ca4:	fec44783          	lbu	a5,-20(s0)
    80000ca8:	2781                	sext.w	a5,a5
    80000caa:	278d                	addiw	a5,a5,3
    80000cac:	2781                	sext.w	a5,a5
    80000cae:	fd843703          	ld	a4,-40(s0)
    80000cb2:	078a                	slli	a5,a5,0x2
    80000cb4:	97ba                	add	a5,a5,a4
    80000cb6:	439c                	lw	a5,0(a5)
    80000cb8:	0107d79b          	srliw	a5,a5,0x10
    80000cbc:	2781                	sext.w	a5,a5
    80000cbe:	0ff7f793          	andi	a5,a5,255
    80000cc2:	2781                	sext.w	a5,a5
    80000cc4:	00006717          	auipc	a4,0x6
    80000cc8:	72470713          	addi	a4,a4,1828 # 800073e8 <Te4>
    80000ccc:	1782                	slli	a5,a5,0x20
    80000cce:	9381                	srli	a5,a5,0x20
    80000cd0:	078a                	slli	a5,a5,0x2
    80000cd2:	97ba                	add	a5,a5,a4
    80000cd4:	439c                	lw	a5,0(a5)
    80000cd6:	0ff7f793          	andi	a5,a5,255
    80000cda:	2781                	sext.w	a5,a5
    80000cdc:	00007717          	auipc	a4,0x7
    80000ce0:	f0c70713          	addi	a4,a4,-244 # 80007be8 <Td1>
    80000ce4:	1782                	slli	a5,a5,0x20
    80000ce6:	9381                	srli	a5,a5,0x20
    80000ce8:	078a                	slli	a5,a5,0x2
    80000cea:	97ba                	add	a5,a5,a4
    80000cec:	439c                	lw	a5,0(a5)
    80000cee:	8736                	mv	a4,a3
    80000cf0:	8fb9                	xor	a5,a5,a4
    80000cf2:	0007869b          	sext.w	a3,a5
    80000cf6:	fec44783          	lbu	a5,-20(s0)
    80000cfa:	2781                	sext.w	a5,a5
    80000cfc:	278d                	addiw	a5,a5,3
    80000cfe:	2781                	sext.w	a5,a5
    80000d00:	fd843703          	ld	a4,-40(s0)
    80000d04:	078a                	slli	a5,a5,0x2
    80000d06:	97ba                	add	a5,a5,a4
    80000d08:	439c                	lw	a5,0(a5)
    80000d0a:	0087d79b          	srliw	a5,a5,0x8
    80000d0e:	2781                	sext.w	a5,a5
    80000d10:	0ff7f793          	andi	a5,a5,255
    80000d14:	2781                	sext.w	a5,a5
    80000d16:	00006717          	auipc	a4,0x6
    80000d1a:	6d270713          	addi	a4,a4,1746 # 800073e8 <Te4>
    80000d1e:	1782                	slli	a5,a5,0x20
    80000d20:	9381                	srli	a5,a5,0x20
    80000d22:	078a                	slli	a5,a5,0x2
    80000d24:	97ba                	add	a5,a5,a4
    80000d26:	439c                	lw	a5,0(a5)
    80000d28:	0ff7f793          	andi	a5,a5,255
    80000d2c:	2781                	sext.w	a5,a5
    80000d2e:	00007717          	auipc	a4,0x7
    80000d32:	2ba70713          	addi	a4,a4,698 # 80007fe8 <Td2>
    80000d36:	1782                	slli	a5,a5,0x20
    80000d38:	9381                	srli	a5,a5,0x20
    80000d3a:	078a                	slli	a5,a5,0x2
    80000d3c:	97ba                	add	a5,a5,a4
    80000d3e:	439c                	lw	a5,0(a5)
    80000d40:	8736                	mv	a4,a3
    80000d42:	8fb9                	xor	a5,a5,a4
    80000d44:	0007869b          	sext.w	a3,a5
    80000d48:	fec44783          	lbu	a5,-20(s0)
    80000d4c:	2781                	sext.w	a5,a5
    80000d4e:	278d                	addiw	a5,a5,3
    80000d50:	2781                	sext.w	a5,a5
    80000d52:	fd843703          	ld	a4,-40(s0)
    80000d56:	078a                	slli	a5,a5,0x2
    80000d58:	97ba                	add	a5,a5,a4
    80000d5a:	439c                	lw	a5,0(a5)
    80000d5c:	0ff7f793          	andi	a5,a5,255
    80000d60:	2781                	sext.w	a5,a5
    80000d62:	00006717          	auipc	a4,0x6
    80000d66:	68670713          	addi	a4,a4,1670 # 800073e8 <Te4>
    80000d6a:	1782                	slli	a5,a5,0x20
    80000d6c:	9381                	srli	a5,a5,0x20
    80000d6e:	078a                	slli	a5,a5,0x2
    80000d70:	97ba                	add	a5,a5,a4
    80000d72:	439c                	lw	a5,0(a5)
    80000d74:	0ff7f793          	andi	a5,a5,255
    80000d78:	2781                	sext.w	a5,a5
    80000d7a:	00007717          	auipc	a4,0x7
    80000d7e:	66e70713          	addi	a4,a4,1646 # 800083e8 <Td3>
    80000d82:	1782                	slli	a5,a5,0x20
    80000d84:	9381                	srli	a5,a5,0x20
    80000d86:	078a                	slli	a5,a5,0x2
    80000d88:	97ba                	add	a5,a5,a4
    80000d8a:	4398                	lw	a4,0(a5)
    80000d8c:	fec44783          	lbu	a5,-20(s0)
    80000d90:	2781                	sext.w	a5,a5
    80000d92:	278d                	addiw	a5,a5,3
    80000d94:	2781                	sext.w	a5,a5
    80000d96:	8f35                	xor	a4,a4,a3
    80000d98:	2701                	sext.w	a4,a4
    80000d9a:	fd843683          	ld	a3,-40(s0)
    80000d9e:	078a                	slli	a5,a5,0x2
    80000da0:	97b6                	add	a5,a5,a3
    80000da2:	c398                	sw	a4,0(a5)
    80000da4:	fec44783          	lbu	a5,-20(s0)
    80000da8:	2791                	addiw	a5,a5,4
    80000daa:	fef40623          	sb	a5,-20(s0)
    80000dae:	fec44783          	lbu	a5,-20(s0)
    80000db2:	0ff7f713          	andi	a4,a5,255
    80000db6:	02700793          	li	a5,39
    80000dba:	aee7f7e3          	bleu	a4,a5,800008a8 <AES_DecryptInit+0xfc>
    80000dbe:	0001                	nop
    80000dc0:	0001                	nop
    80000dc2:	70e2                	ld	ra,56(sp)
    80000dc4:	7442                	ld	s0,48(sp)
    80000dc6:	6121                	addi	sp,sp,64
    80000dc8:	8082                	ret

0000000080000dca <AES_Encrypt>:
    80000dca:	715d                	addi	sp,sp,-80
    80000dcc:	e4a2                	sd	s0,72(sp)
    80000dce:	0880                	addi	s0,sp,80
    80000dd0:	fca43423          	sd	a0,-56(s0)
    80000dd4:	fcb43023          	sd	a1,-64(s0)
    80000dd8:	fac43c23          	sd	a2,-72(s0)
    80000ddc:	fc043783          	ld	a5,-64(s0)
    80000de0:	0007c783          	lbu	a5,0(a5)
    80000de4:	2781                	sext.w	a5,a5
    80000de6:	0187979b          	slliw	a5,a5,0x18
    80000dea:	0007871b          	sext.w	a4,a5
    80000dee:	fc043783          	ld	a5,-64(s0)
    80000df2:	0785                	addi	a5,a5,1
    80000df4:	0007c783          	lbu	a5,0(a5)
    80000df8:	2781                	sext.w	a5,a5
    80000dfa:	0107979b          	slliw	a5,a5,0x10
    80000dfe:	2781                	sext.w	a5,a5
    80000e00:	8fb9                	xor	a5,a5,a4
    80000e02:	0007871b          	sext.w	a4,a5
    80000e06:	fc043783          	ld	a5,-64(s0)
    80000e0a:	0789                	addi	a5,a5,2
    80000e0c:	0007c783          	lbu	a5,0(a5)
    80000e10:	2781                	sext.w	a5,a5
    80000e12:	0087979b          	slliw	a5,a5,0x8
    80000e16:	2781                	sext.w	a5,a5
    80000e18:	8fb9                	xor	a5,a5,a4
    80000e1a:	0007871b          	sext.w	a4,a5
    80000e1e:	fc043783          	ld	a5,-64(s0)
    80000e22:	078d                	addi	a5,a5,3
    80000e24:	0007c783          	lbu	a5,0(a5)
    80000e28:	2781                	sext.w	a5,a5
    80000e2a:	8fb9                	xor	a5,a5,a4
    80000e2c:	0007871b          	sext.w	a4,a5
    80000e30:	fc843783          	ld	a5,-56(s0)
    80000e34:	0b07a783          	lw	a5,176(a5)
    80000e38:	8fb9                	xor	a5,a5,a4
    80000e3a:	0007871b          	sext.w	a4,a5
    80000e3e:	fc843783          	ld	a5,-56(s0)
    80000e42:	439c                	lw	a5,0(a5)
    80000e44:	8fb9                	xor	a5,a5,a4
    80000e46:	fef42623          	sw	a5,-20(s0)
    80000e4a:	fc043783          	ld	a5,-64(s0)
    80000e4e:	0791                	addi	a5,a5,4
    80000e50:	0007c783          	lbu	a5,0(a5)
    80000e54:	2781                	sext.w	a5,a5
    80000e56:	0187979b          	slliw	a5,a5,0x18
    80000e5a:	0007871b          	sext.w	a4,a5
    80000e5e:	fc043783          	ld	a5,-64(s0)
    80000e62:	0795                	addi	a5,a5,5
    80000e64:	0007c783          	lbu	a5,0(a5)
    80000e68:	2781                	sext.w	a5,a5
    80000e6a:	0107979b          	slliw	a5,a5,0x10
    80000e6e:	2781                	sext.w	a5,a5
    80000e70:	8fb9                	xor	a5,a5,a4
    80000e72:	0007871b          	sext.w	a4,a5
    80000e76:	fc043783          	ld	a5,-64(s0)
    80000e7a:	0799                	addi	a5,a5,6
    80000e7c:	0007c783          	lbu	a5,0(a5)
    80000e80:	2781                	sext.w	a5,a5
    80000e82:	0087979b          	slliw	a5,a5,0x8
    80000e86:	2781                	sext.w	a5,a5
    80000e88:	8fb9                	xor	a5,a5,a4
    80000e8a:	0007871b          	sext.w	a4,a5
    80000e8e:	fc043783          	ld	a5,-64(s0)
    80000e92:	079d                	addi	a5,a5,7
    80000e94:	0007c783          	lbu	a5,0(a5)
    80000e98:	2781                	sext.w	a5,a5
    80000e9a:	8fb9                	xor	a5,a5,a4
    80000e9c:	0007871b          	sext.w	a4,a5
    80000ea0:	fc843783          	ld	a5,-56(s0)
    80000ea4:	0b47a783          	lw	a5,180(a5)
    80000ea8:	8fb9                	xor	a5,a5,a4
    80000eaa:	0007871b          	sext.w	a4,a5
    80000eae:	fc843783          	ld	a5,-56(s0)
    80000eb2:	43dc                	lw	a5,4(a5)
    80000eb4:	8fb9                	xor	a5,a5,a4
    80000eb6:	fef42423          	sw	a5,-24(s0)
    80000eba:	fc043783          	ld	a5,-64(s0)
    80000ebe:	07a1                	addi	a5,a5,8
    80000ec0:	0007c783          	lbu	a5,0(a5)
    80000ec4:	2781                	sext.w	a5,a5
    80000ec6:	0187979b          	slliw	a5,a5,0x18
    80000eca:	0007871b          	sext.w	a4,a5
    80000ece:	fc043783          	ld	a5,-64(s0)
    80000ed2:	07a5                	addi	a5,a5,9
    80000ed4:	0007c783          	lbu	a5,0(a5)
    80000ed8:	2781                	sext.w	a5,a5
    80000eda:	0107979b          	slliw	a5,a5,0x10
    80000ede:	2781                	sext.w	a5,a5
    80000ee0:	8fb9                	xor	a5,a5,a4
    80000ee2:	0007871b          	sext.w	a4,a5
    80000ee6:	fc043783          	ld	a5,-64(s0)
    80000eea:	07a9                	addi	a5,a5,10
    80000eec:	0007c783          	lbu	a5,0(a5)
    80000ef0:	2781                	sext.w	a5,a5
    80000ef2:	0087979b          	slliw	a5,a5,0x8
    80000ef6:	2781                	sext.w	a5,a5
    80000ef8:	8fb9                	xor	a5,a5,a4
    80000efa:	0007871b          	sext.w	a4,a5
    80000efe:	fc043783          	ld	a5,-64(s0)
    80000f02:	07ad                	addi	a5,a5,11
    80000f04:	0007c783          	lbu	a5,0(a5)
    80000f08:	2781                	sext.w	a5,a5
    80000f0a:	8fb9                	xor	a5,a5,a4
    80000f0c:	0007871b          	sext.w	a4,a5
    80000f10:	fc843783          	ld	a5,-56(s0)
    80000f14:	0b87a783          	lw	a5,184(a5)
    80000f18:	8fb9                	xor	a5,a5,a4
    80000f1a:	0007871b          	sext.w	a4,a5
    80000f1e:	fc843783          	ld	a5,-56(s0)
    80000f22:	479c                	lw	a5,8(a5)
    80000f24:	8fb9                	xor	a5,a5,a4
    80000f26:	fef42223          	sw	a5,-28(s0)
    80000f2a:	fc043783          	ld	a5,-64(s0)
    80000f2e:	07b1                	addi	a5,a5,12
    80000f30:	0007c783          	lbu	a5,0(a5)
    80000f34:	2781                	sext.w	a5,a5
    80000f36:	0187979b          	slliw	a5,a5,0x18
    80000f3a:	0007871b          	sext.w	a4,a5
    80000f3e:	fc043783          	ld	a5,-64(s0)
    80000f42:	07b5                	addi	a5,a5,13
    80000f44:	0007c783          	lbu	a5,0(a5)
    80000f48:	2781                	sext.w	a5,a5
    80000f4a:	0107979b          	slliw	a5,a5,0x10
    80000f4e:	2781                	sext.w	a5,a5
    80000f50:	8fb9                	xor	a5,a5,a4
    80000f52:	0007871b          	sext.w	a4,a5
    80000f56:	fc043783          	ld	a5,-64(s0)
    80000f5a:	07b9                	addi	a5,a5,14
    80000f5c:	0007c783          	lbu	a5,0(a5)
    80000f60:	2781                	sext.w	a5,a5
    80000f62:	0087979b          	slliw	a5,a5,0x8
    80000f66:	2781                	sext.w	a5,a5
    80000f68:	8fb9                	xor	a5,a5,a4
    80000f6a:	0007871b          	sext.w	a4,a5
    80000f6e:	fc043783          	ld	a5,-64(s0)
    80000f72:	07bd                	addi	a5,a5,15
    80000f74:	0007c783          	lbu	a5,0(a5)
    80000f78:	2781                	sext.w	a5,a5
    80000f7a:	8fb9                	xor	a5,a5,a4
    80000f7c:	0007871b          	sext.w	a4,a5
    80000f80:	fc843783          	ld	a5,-56(s0)
    80000f84:	0bc7a783          	lw	a5,188(a5)
    80000f88:	8fb9                	xor	a5,a5,a4
    80000f8a:	0007871b          	sext.w	a4,a5
    80000f8e:	fc843783          	ld	a5,-56(s0)
    80000f92:	47dc                	lw	a5,12(a5)
    80000f94:	8fb9                	xor	a5,a5,a4
    80000f96:	fef42023          	sw	a5,-32(s0)
    80000f9a:	fec42783          	lw	a5,-20(s0)
    80000f9e:	0187d79b          	srliw	a5,a5,0x18
    80000fa2:	2781                	sext.w	a5,a5
    80000fa4:	00005717          	auipc	a4,0x5
    80000fa8:	44470713          	addi	a4,a4,1092 # 800063e8 <Te0>
    80000fac:	1782                	slli	a5,a5,0x20
    80000fae:	9381                	srli	a5,a5,0x20
    80000fb0:	078a                	slli	a5,a5,0x2
    80000fb2:	97ba                	add	a5,a5,a4
    80000fb4:	4394                	lw	a3,0(a5)
    80000fb6:	fe842783          	lw	a5,-24(s0)
    80000fba:	0107d79b          	srliw	a5,a5,0x10
    80000fbe:	2781                	sext.w	a5,a5
    80000fc0:	0ff7f793          	andi	a5,a5,255
    80000fc4:	2781                	sext.w	a5,a5
    80000fc6:	00006717          	auipc	a4,0x6
    80000fca:	82270713          	addi	a4,a4,-2014 # 800067e8 <Te1>
    80000fce:	1782                	slli	a5,a5,0x20
    80000fd0:	9381                	srli	a5,a5,0x20
    80000fd2:	078a                	slli	a5,a5,0x2
    80000fd4:	97ba                	add	a5,a5,a4
    80000fd6:	439c                	lw	a5,0(a5)
    80000fd8:	8736                	mv	a4,a3
    80000fda:	8fb9                	xor	a5,a5,a4
    80000fdc:	0007869b          	sext.w	a3,a5
    80000fe0:	fe442783          	lw	a5,-28(s0)
    80000fe4:	0087d79b          	srliw	a5,a5,0x8
    80000fe8:	2781                	sext.w	a5,a5
    80000fea:	0ff7f793          	andi	a5,a5,255
    80000fee:	2781                	sext.w	a5,a5
    80000ff0:	00006717          	auipc	a4,0x6
    80000ff4:	bf870713          	addi	a4,a4,-1032 # 80006be8 <Te2>
    80000ff8:	1782                	slli	a5,a5,0x20
    80000ffa:	9381                	srli	a5,a5,0x20
    80000ffc:	078a                	slli	a5,a5,0x2
    80000ffe:	97ba                	add	a5,a5,a4
    80001000:	439c                	lw	a5,0(a5)
    80001002:	8736                	mv	a4,a3
    80001004:	8fb9                	xor	a5,a5,a4
    80001006:	0007869b          	sext.w	a3,a5
    8000100a:	fe042783          	lw	a5,-32(s0)
    8000100e:	0ff7f793          	andi	a5,a5,255
    80001012:	2781                	sext.w	a5,a5
    80001014:	00006717          	auipc	a4,0x6
    80001018:	fd470713          	addi	a4,a4,-44 # 80006fe8 <Te3>
    8000101c:	1782                	slli	a5,a5,0x20
    8000101e:	9381                	srli	a5,a5,0x20
    80001020:	078a                	slli	a5,a5,0x2
    80001022:	97ba                	add	a5,a5,a4
    80001024:	439c                	lw	a5,0(a5)
    80001026:	8736                	mv	a4,a3
    80001028:	8fb9                	xor	a5,a5,a4
    8000102a:	0007871b          	sext.w	a4,a5
    8000102e:	fc843783          	ld	a5,-56(s0)
    80001032:	4b9c                	lw	a5,16(a5)
    80001034:	8fb9                	xor	a5,a5,a4
    80001036:	fcf42e23          	sw	a5,-36(s0)
    8000103a:	fe842783          	lw	a5,-24(s0)
    8000103e:	0187d79b          	srliw	a5,a5,0x18
    80001042:	2781                	sext.w	a5,a5
    80001044:	00005717          	auipc	a4,0x5
    80001048:	3a470713          	addi	a4,a4,932 # 800063e8 <Te0>
    8000104c:	1782                	slli	a5,a5,0x20
    8000104e:	9381                	srli	a5,a5,0x20
    80001050:	078a                	slli	a5,a5,0x2
    80001052:	97ba                	add	a5,a5,a4
    80001054:	4394                	lw	a3,0(a5)
    80001056:	fe442783          	lw	a5,-28(s0)
    8000105a:	0107d79b          	srliw	a5,a5,0x10
    8000105e:	2781                	sext.w	a5,a5
    80001060:	0ff7f793          	andi	a5,a5,255
    80001064:	2781                	sext.w	a5,a5
    80001066:	00005717          	auipc	a4,0x5
    8000106a:	78270713          	addi	a4,a4,1922 # 800067e8 <Te1>
    8000106e:	1782                	slli	a5,a5,0x20
    80001070:	9381                	srli	a5,a5,0x20
    80001072:	078a                	slli	a5,a5,0x2
    80001074:	97ba                	add	a5,a5,a4
    80001076:	439c                	lw	a5,0(a5)
    80001078:	8736                	mv	a4,a3
    8000107a:	8fb9                	xor	a5,a5,a4
    8000107c:	0007869b          	sext.w	a3,a5
    80001080:	fe042783          	lw	a5,-32(s0)
    80001084:	0087d79b          	srliw	a5,a5,0x8
    80001088:	2781                	sext.w	a5,a5
    8000108a:	0ff7f793          	andi	a5,a5,255
    8000108e:	2781                	sext.w	a5,a5
    80001090:	00006717          	auipc	a4,0x6
    80001094:	b5870713          	addi	a4,a4,-1192 # 80006be8 <Te2>
    80001098:	1782                	slli	a5,a5,0x20
    8000109a:	9381                	srli	a5,a5,0x20
    8000109c:	078a                	slli	a5,a5,0x2
    8000109e:	97ba                	add	a5,a5,a4
    800010a0:	439c                	lw	a5,0(a5)
    800010a2:	8736                	mv	a4,a3
    800010a4:	8fb9                	xor	a5,a5,a4
    800010a6:	0007869b          	sext.w	a3,a5
    800010aa:	fec42783          	lw	a5,-20(s0)
    800010ae:	0ff7f793          	andi	a5,a5,255
    800010b2:	2781                	sext.w	a5,a5
    800010b4:	00006717          	auipc	a4,0x6
    800010b8:	f3470713          	addi	a4,a4,-204 # 80006fe8 <Te3>
    800010bc:	1782                	slli	a5,a5,0x20
    800010be:	9381                	srli	a5,a5,0x20
    800010c0:	078a                	slli	a5,a5,0x2
    800010c2:	97ba                	add	a5,a5,a4
    800010c4:	439c                	lw	a5,0(a5)
    800010c6:	8736                	mv	a4,a3
    800010c8:	8fb9                	xor	a5,a5,a4
    800010ca:	0007871b          	sext.w	a4,a5
    800010ce:	fc843783          	ld	a5,-56(s0)
    800010d2:	4bdc                	lw	a5,20(a5)
    800010d4:	8fb9                	xor	a5,a5,a4
    800010d6:	fcf42c23          	sw	a5,-40(s0)
    800010da:	fe442783          	lw	a5,-28(s0)
    800010de:	0187d79b          	srliw	a5,a5,0x18
    800010e2:	2781                	sext.w	a5,a5
    800010e4:	00005717          	auipc	a4,0x5
    800010e8:	30470713          	addi	a4,a4,772 # 800063e8 <Te0>
    800010ec:	1782                	slli	a5,a5,0x20
    800010ee:	9381                	srli	a5,a5,0x20
    800010f0:	078a                	slli	a5,a5,0x2
    800010f2:	97ba                	add	a5,a5,a4
    800010f4:	4394                	lw	a3,0(a5)
    800010f6:	fe042783          	lw	a5,-32(s0)
    800010fa:	0107d79b          	srliw	a5,a5,0x10
    800010fe:	2781                	sext.w	a5,a5
    80001100:	0ff7f793          	andi	a5,a5,255
    80001104:	2781                	sext.w	a5,a5
    80001106:	00005717          	auipc	a4,0x5
    8000110a:	6e270713          	addi	a4,a4,1762 # 800067e8 <Te1>
    8000110e:	1782                	slli	a5,a5,0x20
    80001110:	9381                	srli	a5,a5,0x20
    80001112:	078a                	slli	a5,a5,0x2
    80001114:	97ba                	add	a5,a5,a4
    80001116:	439c                	lw	a5,0(a5)
    80001118:	8736                	mv	a4,a3
    8000111a:	8fb9                	xor	a5,a5,a4
    8000111c:	0007869b          	sext.w	a3,a5
    80001120:	fec42783          	lw	a5,-20(s0)
    80001124:	0087d79b          	srliw	a5,a5,0x8
    80001128:	2781                	sext.w	a5,a5
    8000112a:	0ff7f793          	andi	a5,a5,255
    8000112e:	2781                	sext.w	a5,a5
    80001130:	00006717          	auipc	a4,0x6
    80001134:	ab870713          	addi	a4,a4,-1352 # 80006be8 <Te2>
    80001138:	1782                	slli	a5,a5,0x20
    8000113a:	9381                	srli	a5,a5,0x20
    8000113c:	078a                	slli	a5,a5,0x2
    8000113e:	97ba                	add	a5,a5,a4
    80001140:	439c                	lw	a5,0(a5)
    80001142:	8736                	mv	a4,a3
    80001144:	8fb9                	xor	a5,a5,a4
    80001146:	0007869b          	sext.w	a3,a5
    8000114a:	fe842783          	lw	a5,-24(s0)
    8000114e:	0ff7f793          	andi	a5,a5,255
    80001152:	2781                	sext.w	a5,a5
    80001154:	00006717          	auipc	a4,0x6
    80001158:	e9470713          	addi	a4,a4,-364 # 80006fe8 <Te3>
    8000115c:	1782                	slli	a5,a5,0x20
    8000115e:	9381                	srli	a5,a5,0x20
    80001160:	078a                	slli	a5,a5,0x2
    80001162:	97ba                	add	a5,a5,a4
    80001164:	439c                	lw	a5,0(a5)
    80001166:	8736                	mv	a4,a3
    80001168:	8fb9                	xor	a5,a5,a4
    8000116a:	0007871b          	sext.w	a4,a5
    8000116e:	fc843783          	ld	a5,-56(s0)
    80001172:	4f9c                	lw	a5,24(a5)
    80001174:	8fb9                	xor	a5,a5,a4
    80001176:	fcf42a23          	sw	a5,-44(s0)
    8000117a:	fe042783          	lw	a5,-32(s0)
    8000117e:	0187d79b          	srliw	a5,a5,0x18
    80001182:	2781                	sext.w	a5,a5
    80001184:	00005717          	auipc	a4,0x5
    80001188:	26470713          	addi	a4,a4,612 # 800063e8 <Te0>
    8000118c:	1782                	slli	a5,a5,0x20
    8000118e:	9381                	srli	a5,a5,0x20
    80001190:	078a                	slli	a5,a5,0x2
    80001192:	97ba                	add	a5,a5,a4
    80001194:	4394                	lw	a3,0(a5)
    80001196:	fec42783          	lw	a5,-20(s0)
    8000119a:	0107d79b          	srliw	a5,a5,0x10
    8000119e:	2781                	sext.w	a5,a5
    800011a0:	0ff7f793          	andi	a5,a5,255
    800011a4:	2781                	sext.w	a5,a5
    800011a6:	00005717          	auipc	a4,0x5
    800011aa:	64270713          	addi	a4,a4,1602 # 800067e8 <Te1>
    800011ae:	1782                	slli	a5,a5,0x20
    800011b0:	9381                	srli	a5,a5,0x20
    800011b2:	078a                	slli	a5,a5,0x2
    800011b4:	97ba                	add	a5,a5,a4
    800011b6:	439c                	lw	a5,0(a5)
    800011b8:	8736                	mv	a4,a3
    800011ba:	8fb9                	xor	a5,a5,a4
    800011bc:	0007869b          	sext.w	a3,a5
    800011c0:	fe842783          	lw	a5,-24(s0)
    800011c4:	0087d79b          	srliw	a5,a5,0x8
    800011c8:	2781                	sext.w	a5,a5
    800011ca:	0ff7f793          	andi	a5,a5,255
    800011ce:	2781                	sext.w	a5,a5
    800011d0:	00006717          	auipc	a4,0x6
    800011d4:	a1870713          	addi	a4,a4,-1512 # 80006be8 <Te2>
    800011d8:	1782                	slli	a5,a5,0x20
    800011da:	9381                	srli	a5,a5,0x20
    800011dc:	078a                	slli	a5,a5,0x2
    800011de:	97ba                	add	a5,a5,a4
    800011e0:	439c                	lw	a5,0(a5)
    800011e2:	8736                	mv	a4,a3
    800011e4:	8fb9                	xor	a5,a5,a4
    800011e6:	0007869b          	sext.w	a3,a5
    800011ea:	fe442783          	lw	a5,-28(s0)
    800011ee:	0ff7f793          	andi	a5,a5,255
    800011f2:	2781                	sext.w	a5,a5
    800011f4:	00006717          	auipc	a4,0x6
    800011f8:	df470713          	addi	a4,a4,-524 # 80006fe8 <Te3>
    800011fc:	1782                	slli	a5,a5,0x20
    800011fe:	9381                	srli	a5,a5,0x20
    80001200:	078a                	slli	a5,a5,0x2
    80001202:	97ba                	add	a5,a5,a4
    80001204:	439c                	lw	a5,0(a5)
    80001206:	8736                	mv	a4,a3
    80001208:	8fb9                	xor	a5,a5,a4
    8000120a:	0007871b          	sext.w	a4,a5
    8000120e:	fc843783          	ld	a5,-56(s0)
    80001212:	4fdc                	lw	a5,28(a5)
    80001214:	8fb9                	xor	a5,a5,a4
    80001216:	fcf42823          	sw	a5,-48(s0)
    8000121a:	fdc42783          	lw	a5,-36(s0)
    8000121e:	0187d79b          	srliw	a5,a5,0x18
    80001222:	2781                	sext.w	a5,a5
    80001224:	00005717          	auipc	a4,0x5
    80001228:	1c470713          	addi	a4,a4,452 # 800063e8 <Te0>
    8000122c:	1782                	slli	a5,a5,0x20
    8000122e:	9381                	srli	a5,a5,0x20
    80001230:	078a                	slli	a5,a5,0x2
    80001232:	97ba                	add	a5,a5,a4
    80001234:	4394                	lw	a3,0(a5)
    80001236:	fd842783          	lw	a5,-40(s0)
    8000123a:	0107d79b          	srliw	a5,a5,0x10
    8000123e:	2781                	sext.w	a5,a5
    80001240:	0ff7f793          	andi	a5,a5,255
    80001244:	2781                	sext.w	a5,a5
    80001246:	00005717          	auipc	a4,0x5
    8000124a:	5a270713          	addi	a4,a4,1442 # 800067e8 <Te1>
    8000124e:	1782                	slli	a5,a5,0x20
    80001250:	9381                	srli	a5,a5,0x20
    80001252:	078a                	slli	a5,a5,0x2
    80001254:	97ba                	add	a5,a5,a4
    80001256:	439c                	lw	a5,0(a5)
    80001258:	8736                	mv	a4,a3
    8000125a:	8fb9                	xor	a5,a5,a4
    8000125c:	0007869b          	sext.w	a3,a5
    80001260:	fd442783          	lw	a5,-44(s0)
    80001264:	0087d79b          	srliw	a5,a5,0x8
    80001268:	2781                	sext.w	a5,a5
    8000126a:	0ff7f793          	andi	a5,a5,255
    8000126e:	2781                	sext.w	a5,a5
    80001270:	00006717          	auipc	a4,0x6
    80001274:	97870713          	addi	a4,a4,-1672 # 80006be8 <Te2>
    80001278:	1782                	slli	a5,a5,0x20
    8000127a:	9381                	srli	a5,a5,0x20
    8000127c:	078a                	slli	a5,a5,0x2
    8000127e:	97ba                	add	a5,a5,a4
    80001280:	439c                	lw	a5,0(a5)
    80001282:	8736                	mv	a4,a3
    80001284:	8fb9                	xor	a5,a5,a4
    80001286:	0007869b          	sext.w	a3,a5
    8000128a:	fd042783          	lw	a5,-48(s0)
    8000128e:	0ff7f793          	andi	a5,a5,255
    80001292:	2781                	sext.w	a5,a5
    80001294:	00006717          	auipc	a4,0x6
    80001298:	d5470713          	addi	a4,a4,-684 # 80006fe8 <Te3>
    8000129c:	1782                	slli	a5,a5,0x20
    8000129e:	9381                	srli	a5,a5,0x20
    800012a0:	078a                	slli	a5,a5,0x2
    800012a2:	97ba                	add	a5,a5,a4
    800012a4:	439c                	lw	a5,0(a5)
    800012a6:	8736                	mv	a4,a3
    800012a8:	8fb9                	xor	a5,a5,a4
    800012aa:	0007871b          	sext.w	a4,a5
    800012ae:	fc843783          	ld	a5,-56(s0)
    800012b2:	539c                	lw	a5,32(a5)
    800012b4:	8fb9                	xor	a5,a5,a4
    800012b6:	fef42623          	sw	a5,-20(s0)
    800012ba:	fd842783          	lw	a5,-40(s0)
    800012be:	0187d79b          	srliw	a5,a5,0x18
    800012c2:	2781                	sext.w	a5,a5
    800012c4:	00005717          	auipc	a4,0x5
    800012c8:	12470713          	addi	a4,a4,292 # 800063e8 <Te0>
    800012cc:	1782                	slli	a5,a5,0x20
    800012ce:	9381                	srli	a5,a5,0x20
    800012d0:	078a                	slli	a5,a5,0x2
    800012d2:	97ba                	add	a5,a5,a4
    800012d4:	4394                	lw	a3,0(a5)
    800012d6:	fd442783          	lw	a5,-44(s0)
    800012da:	0107d79b          	srliw	a5,a5,0x10
    800012de:	2781                	sext.w	a5,a5
    800012e0:	0ff7f793          	andi	a5,a5,255
    800012e4:	2781                	sext.w	a5,a5
    800012e6:	00005717          	auipc	a4,0x5
    800012ea:	50270713          	addi	a4,a4,1282 # 800067e8 <Te1>
    800012ee:	1782                	slli	a5,a5,0x20
    800012f0:	9381                	srli	a5,a5,0x20
    800012f2:	078a                	slli	a5,a5,0x2
    800012f4:	97ba                	add	a5,a5,a4
    800012f6:	439c                	lw	a5,0(a5)
    800012f8:	8736                	mv	a4,a3
    800012fa:	8fb9                	xor	a5,a5,a4
    800012fc:	0007869b          	sext.w	a3,a5
    80001300:	fd042783          	lw	a5,-48(s0)
    80001304:	0087d79b          	srliw	a5,a5,0x8
    80001308:	2781                	sext.w	a5,a5
    8000130a:	0ff7f793          	andi	a5,a5,255
    8000130e:	2781                	sext.w	a5,a5
    80001310:	00006717          	auipc	a4,0x6
    80001314:	8d870713          	addi	a4,a4,-1832 # 80006be8 <Te2>
    80001318:	1782                	slli	a5,a5,0x20
    8000131a:	9381                	srli	a5,a5,0x20
    8000131c:	078a                	slli	a5,a5,0x2
    8000131e:	97ba                	add	a5,a5,a4
    80001320:	439c                	lw	a5,0(a5)
    80001322:	8736                	mv	a4,a3
    80001324:	8fb9                	xor	a5,a5,a4
    80001326:	0007869b          	sext.w	a3,a5
    8000132a:	fdc42783          	lw	a5,-36(s0)
    8000132e:	0ff7f793          	andi	a5,a5,255
    80001332:	2781                	sext.w	a5,a5
    80001334:	00006717          	auipc	a4,0x6
    80001338:	cb470713          	addi	a4,a4,-844 # 80006fe8 <Te3>
    8000133c:	1782                	slli	a5,a5,0x20
    8000133e:	9381                	srli	a5,a5,0x20
    80001340:	078a                	slli	a5,a5,0x2
    80001342:	97ba                	add	a5,a5,a4
    80001344:	439c                	lw	a5,0(a5)
    80001346:	8736                	mv	a4,a3
    80001348:	8fb9                	xor	a5,a5,a4
    8000134a:	0007871b          	sext.w	a4,a5
    8000134e:	fc843783          	ld	a5,-56(s0)
    80001352:	53dc                	lw	a5,36(a5)
    80001354:	8fb9                	xor	a5,a5,a4
    80001356:	fef42423          	sw	a5,-24(s0)
    8000135a:	fd442783          	lw	a5,-44(s0)
    8000135e:	0187d79b          	srliw	a5,a5,0x18
    80001362:	2781                	sext.w	a5,a5
    80001364:	00005717          	auipc	a4,0x5
    80001368:	08470713          	addi	a4,a4,132 # 800063e8 <Te0>
    8000136c:	1782                	slli	a5,a5,0x20
    8000136e:	9381                	srli	a5,a5,0x20
    80001370:	078a                	slli	a5,a5,0x2
    80001372:	97ba                	add	a5,a5,a4
    80001374:	4394                	lw	a3,0(a5)
    80001376:	fd042783          	lw	a5,-48(s0)
    8000137a:	0107d79b          	srliw	a5,a5,0x10
    8000137e:	2781                	sext.w	a5,a5
    80001380:	0ff7f793          	andi	a5,a5,255
    80001384:	2781                	sext.w	a5,a5
    80001386:	00005717          	auipc	a4,0x5
    8000138a:	46270713          	addi	a4,a4,1122 # 800067e8 <Te1>
    8000138e:	1782                	slli	a5,a5,0x20
    80001390:	9381                	srli	a5,a5,0x20
    80001392:	078a                	slli	a5,a5,0x2
    80001394:	97ba                	add	a5,a5,a4
    80001396:	439c                	lw	a5,0(a5)
    80001398:	8736                	mv	a4,a3
    8000139a:	8fb9                	xor	a5,a5,a4
    8000139c:	0007869b          	sext.w	a3,a5
    800013a0:	fdc42783          	lw	a5,-36(s0)
    800013a4:	0087d79b          	srliw	a5,a5,0x8
    800013a8:	2781                	sext.w	a5,a5
    800013aa:	0ff7f793          	andi	a5,a5,255
    800013ae:	2781                	sext.w	a5,a5
    800013b0:	00006717          	auipc	a4,0x6
    800013b4:	83870713          	addi	a4,a4,-1992 # 80006be8 <Te2>
    800013b8:	1782                	slli	a5,a5,0x20
    800013ba:	9381                	srli	a5,a5,0x20
    800013bc:	078a                	slli	a5,a5,0x2
    800013be:	97ba                	add	a5,a5,a4
    800013c0:	439c                	lw	a5,0(a5)
    800013c2:	8736                	mv	a4,a3
    800013c4:	8fb9                	xor	a5,a5,a4
    800013c6:	0007869b          	sext.w	a3,a5
    800013ca:	fd842783          	lw	a5,-40(s0)
    800013ce:	0ff7f793          	andi	a5,a5,255
    800013d2:	2781                	sext.w	a5,a5
    800013d4:	00006717          	auipc	a4,0x6
    800013d8:	c1470713          	addi	a4,a4,-1004 # 80006fe8 <Te3>
    800013dc:	1782                	slli	a5,a5,0x20
    800013de:	9381                	srli	a5,a5,0x20
    800013e0:	078a                	slli	a5,a5,0x2
    800013e2:	97ba                	add	a5,a5,a4
    800013e4:	439c                	lw	a5,0(a5)
    800013e6:	8736                	mv	a4,a3
    800013e8:	8fb9                	xor	a5,a5,a4
    800013ea:	0007871b          	sext.w	a4,a5
    800013ee:	fc843783          	ld	a5,-56(s0)
    800013f2:	579c                	lw	a5,40(a5)
    800013f4:	8fb9                	xor	a5,a5,a4
    800013f6:	fef42223          	sw	a5,-28(s0)
    800013fa:	fd042783          	lw	a5,-48(s0)
    800013fe:	0187d79b          	srliw	a5,a5,0x18
    80001402:	2781                	sext.w	a5,a5
    80001404:	00005717          	auipc	a4,0x5
    80001408:	fe470713          	addi	a4,a4,-28 # 800063e8 <Te0>
    8000140c:	1782                	slli	a5,a5,0x20
    8000140e:	9381                	srli	a5,a5,0x20
    80001410:	078a                	slli	a5,a5,0x2
    80001412:	97ba                	add	a5,a5,a4
    80001414:	4394                	lw	a3,0(a5)
    80001416:	fdc42783          	lw	a5,-36(s0)
    8000141a:	0107d79b          	srliw	a5,a5,0x10
    8000141e:	2781                	sext.w	a5,a5
    80001420:	0ff7f793          	andi	a5,a5,255
    80001424:	2781                	sext.w	a5,a5
    80001426:	00005717          	auipc	a4,0x5
    8000142a:	3c270713          	addi	a4,a4,962 # 800067e8 <Te1>
    8000142e:	1782                	slli	a5,a5,0x20
    80001430:	9381                	srli	a5,a5,0x20
    80001432:	078a                	slli	a5,a5,0x2
    80001434:	97ba                	add	a5,a5,a4
    80001436:	439c                	lw	a5,0(a5)
    80001438:	8736                	mv	a4,a3
    8000143a:	8fb9                	xor	a5,a5,a4
    8000143c:	0007869b          	sext.w	a3,a5
    80001440:	fd842783          	lw	a5,-40(s0)
    80001444:	0087d79b          	srliw	a5,a5,0x8
    80001448:	2781                	sext.w	a5,a5
    8000144a:	0ff7f793          	andi	a5,a5,255
    8000144e:	2781                	sext.w	a5,a5
    80001450:	00005717          	auipc	a4,0x5
    80001454:	79870713          	addi	a4,a4,1944 # 80006be8 <Te2>
    80001458:	1782                	slli	a5,a5,0x20
    8000145a:	9381                	srli	a5,a5,0x20
    8000145c:	078a                	slli	a5,a5,0x2
    8000145e:	97ba                	add	a5,a5,a4
    80001460:	439c                	lw	a5,0(a5)
    80001462:	8736                	mv	a4,a3
    80001464:	8fb9                	xor	a5,a5,a4
    80001466:	0007869b          	sext.w	a3,a5
    8000146a:	fd442783          	lw	a5,-44(s0)
    8000146e:	0ff7f793          	andi	a5,a5,255
    80001472:	2781                	sext.w	a5,a5
    80001474:	00006717          	auipc	a4,0x6
    80001478:	b7470713          	addi	a4,a4,-1164 # 80006fe8 <Te3>
    8000147c:	1782                	slli	a5,a5,0x20
    8000147e:	9381                	srli	a5,a5,0x20
    80001480:	078a                	slli	a5,a5,0x2
    80001482:	97ba                	add	a5,a5,a4
    80001484:	439c                	lw	a5,0(a5)
    80001486:	8736                	mv	a4,a3
    80001488:	8fb9                	xor	a5,a5,a4
    8000148a:	0007871b          	sext.w	a4,a5
    8000148e:	fc843783          	ld	a5,-56(s0)
    80001492:	57dc                	lw	a5,44(a5)
    80001494:	8fb9                	xor	a5,a5,a4
    80001496:	fef42023          	sw	a5,-32(s0)
    8000149a:	fec42783          	lw	a5,-20(s0)
    8000149e:	0187d79b          	srliw	a5,a5,0x18
    800014a2:	2781                	sext.w	a5,a5
    800014a4:	00005717          	auipc	a4,0x5
    800014a8:	f4470713          	addi	a4,a4,-188 # 800063e8 <Te0>
    800014ac:	1782                	slli	a5,a5,0x20
    800014ae:	9381                	srli	a5,a5,0x20
    800014b0:	078a                	slli	a5,a5,0x2
    800014b2:	97ba                	add	a5,a5,a4
    800014b4:	4394                	lw	a3,0(a5)
    800014b6:	fe842783          	lw	a5,-24(s0)
    800014ba:	0107d79b          	srliw	a5,a5,0x10
    800014be:	2781                	sext.w	a5,a5
    800014c0:	0ff7f793          	andi	a5,a5,255
    800014c4:	2781                	sext.w	a5,a5
    800014c6:	00005717          	auipc	a4,0x5
    800014ca:	32270713          	addi	a4,a4,802 # 800067e8 <Te1>
    800014ce:	1782                	slli	a5,a5,0x20
    800014d0:	9381                	srli	a5,a5,0x20
    800014d2:	078a                	slli	a5,a5,0x2
    800014d4:	97ba                	add	a5,a5,a4
    800014d6:	439c                	lw	a5,0(a5)
    800014d8:	8736                	mv	a4,a3
    800014da:	8fb9                	xor	a5,a5,a4
    800014dc:	0007869b          	sext.w	a3,a5
    800014e0:	fe442783          	lw	a5,-28(s0)
    800014e4:	0087d79b          	srliw	a5,a5,0x8
    800014e8:	2781                	sext.w	a5,a5
    800014ea:	0ff7f793          	andi	a5,a5,255
    800014ee:	2781                	sext.w	a5,a5
    800014f0:	00005717          	auipc	a4,0x5
    800014f4:	6f870713          	addi	a4,a4,1784 # 80006be8 <Te2>
    800014f8:	1782                	slli	a5,a5,0x20
    800014fa:	9381                	srli	a5,a5,0x20
    800014fc:	078a                	slli	a5,a5,0x2
    800014fe:	97ba                	add	a5,a5,a4
    80001500:	439c                	lw	a5,0(a5)
    80001502:	8736                	mv	a4,a3
    80001504:	8fb9                	xor	a5,a5,a4
    80001506:	0007869b          	sext.w	a3,a5
    8000150a:	fe042783          	lw	a5,-32(s0)
    8000150e:	0ff7f793          	andi	a5,a5,255
    80001512:	2781                	sext.w	a5,a5
    80001514:	00006717          	auipc	a4,0x6
    80001518:	ad470713          	addi	a4,a4,-1324 # 80006fe8 <Te3>
    8000151c:	1782                	slli	a5,a5,0x20
    8000151e:	9381                	srli	a5,a5,0x20
    80001520:	078a                	slli	a5,a5,0x2
    80001522:	97ba                	add	a5,a5,a4
    80001524:	439c                	lw	a5,0(a5)
    80001526:	8736                	mv	a4,a3
    80001528:	8fb9                	xor	a5,a5,a4
    8000152a:	0007871b          	sext.w	a4,a5
    8000152e:	fc843783          	ld	a5,-56(s0)
    80001532:	5b9c                	lw	a5,48(a5)
    80001534:	8fb9                	xor	a5,a5,a4
    80001536:	fcf42e23          	sw	a5,-36(s0)
    8000153a:	fe842783          	lw	a5,-24(s0)
    8000153e:	0187d79b          	srliw	a5,a5,0x18
    80001542:	2781                	sext.w	a5,a5
    80001544:	00005717          	auipc	a4,0x5
    80001548:	ea470713          	addi	a4,a4,-348 # 800063e8 <Te0>
    8000154c:	1782                	slli	a5,a5,0x20
    8000154e:	9381                	srli	a5,a5,0x20
    80001550:	078a                	slli	a5,a5,0x2
    80001552:	97ba                	add	a5,a5,a4
    80001554:	4394                	lw	a3,0(a5)
    80001556:	fe442783          	lw	a5,-28(s0)
    8000155a:	0107d79b          	srliw	a5,a5,0x10
    8000155e:	2781                	sext.w	a5,a5
    80001560:	0ff7f793          	andi	a5,a5,255
    80001564:	2781                	sext.w	a5,a5
    80001566:	00005717          	auipc	a4,0x5
    8000156a:	28270713          	addi	a4,a4,642 # 800067e8 <Te1>
    8000156e:	1782                	slli	a5,a5,0x20
    80001570:	9381                	srli	a5,a5,0x20
    80001572:	078a                	slli	a5,a5,0x2
    80001574:	97ba                	add	a5,a5,a4
    80001576:	439c                	lw	a5,0(a5)
    80001578:	8736                	mv	a4,a3
    8000157a:	8fb9                	xor	a5,a5,a4
    8000157c:	0007869b          	sext.w	a3,a5
    80001580:	fe042783          	lw	a5,-32(s0)
    80001584:	0087d79b          	srliw	a5,a5,0x8
    80001588:	2781                	sext.w	a5,a5
    8000158a:	0ff7f793          	andi	a5,a5,255
    8000158e:	2781                	sext.w	a5,a5
    80001590:	00005717          	auipc	a4,0x5
    80001594:	65870713          	addi	a4,a4,1624 # 80006be8 <Te2>
    80001598:	1782                	slli	a5,a5,0x20
    8000159a:	9381                	srli	a5,a5,0x20
    8000159c:	078a                	slli	a5,a5,0x2
    8000159e:	97ba                	add	a5,a5,a4
    800015a0:	439c                	lw	a5,0(a5)
    800015a2:	8736                	mv	a4,a3
    800015a4:	8fb9                	xor	a5,a5,a4
    800015a6:	0007869b          	sext.w	a3,a5
    800015aa:	fec42783          	lw	a5,-20(s0)
    800015ae:	0ff7f793          	andi	a5,a5,255
    800015b2:	2781                	sext.w	a5,a5
    800015b4:	00006717          	auipc	a4,0x6
    800015b8:	a3470713          	addi	a4,a4,-1484 # 80006fe8 <Te3>
    800015bc:	1782                	slli	a5,a5,0x20
    800015be:	9381                	srli	a5,a5,0x20
    800015c0:	078a                	slli	a5,a5,0x2
    800015c2:	97ba                	add	a5,a5,a4
    800015c4:	439c                	lw	a5,0(a5)
    800015c6:	8736                	mv	a4,a3
    800015c8:	8fb9                	xor	a5,a5,a4
    800015ca:	0007871b          	sext.w	a4,a5
    800015ce:	fc843783          	ld	a5,-56(s0)
    800015d2:	5bdc                	lw	a5,52(a5)
    800015d4:	8fb9                	xor	a5,a5,a4
    800015d6:	fcf42c23          	sw	a5,-40(s0)
    800015da:	fe442783          	lw	a5,-28(s0)
    800015de:	0187d79b          	srliw	a5,a5,0x18
    800015e2:	2781                	sext.w	a5,a5
    800015e4:	00005717          	auipc	a4,0x5
    800015e8:	e0470713          	addi	a4,a4,-508 # 800063e8 <Te0>
    800015ec:	1782                	slli	a5,a5,0x20
    800015ee:	9381                	srli	a5,a5,0x20
    800015f0:	078a                	slli	a5,a5,0x2
    800015f2:	97ba                	add	a5,a5,a4
    800015f4:	4394                	lw	a3,0(a5)
    800015f6:	fe042783          	lw	a5,-32(s0)
    800015fa:	0107d79b          	srliw	a5,a5,0x10
    800015fe:	2781                	sext.w	a5,a5
    80001600:	0ff7f793          	andi	a5,a5,255
    80001604:	2781                	sext.w	a5,a5
    80001606:	00005717          	auipc	a4,0x5
    8000160a:	1e270713          	addi	a4,a4,482 # 800067e8 <Te1>
    8000160e:	1782                	slli	a5,a5,0x20
    80001610:	9381                	srli	a5,a5,0x20
    80001612:	078a                	slli	a5,a5,0x2
    80001614:	97ba                	add	a5,a5,a4
    80001616:	439c                	lw	a5,0(a5)
    80001618:	8736                	mv	a4,a3
    8000161a:	8fb9                	xor	a5,a5,a4
    8000161c:	0007869b          	sext.w	a3,a5
    80001620:	fec42783          	lw	a5,-20(s0)
    80001624:	0087d79b          	srliw	a5,a5,0x8
    80001628:	2781                	sext.w	a5,a5
    8000162a:	0ff7f793          	andi	a5,a5,255
    8000162e:	2781                	sext.w	a5,a5
    80001630:	00005717          	auipc	a4,0x5
    80001634:	5b870713          	addi	a4,a4,1464 # 80006be8 <Te2>
    80001638:	1782                	slli	a5,a5,0x20
    8000163a:	9381                	srli	a5,a5,0x20
    8000163c:	078a                	slli	a5,a5,0x2
    8000163e:	97ba                	add	a5,a5,a4
    80001640:	439c                	lw	a5,0(a5)
    80001642:	8736                	mv	a4,a3
    80001644:	8fb9                	xor	a5,a5,a4
    80001646:	0007869b          	sext.w	a3,a5
    8000164a:	fe842783          	lw	a5,-24(s0)
    8000164e:	0ff7f793          	andi	a5,a5,255
    80001652:	2781                	sext.w	a5,a5
    80001654:	00006717          	auipc	a4,0x6
    80001658:	99470713          	addi	a4,a4,-1644 # 80006fe8 <Te3>
    8000165c:	1782                	slli	a5,a5,0x20
    8000165e:	9381                	srli	a5,a5,0x20
    80001660:	078a                	slli	a5,a5,0x2
    80001662:	97ba                	add	a5,a5,a4
    80001664:	439c                	lw	a5,0(a5)
    80001666:	8736                	mv	a4,a3
    80001668:	8fb9                	xor	a5,a5,a4
    8000166a:	0007871b          	sext.w	a4,a5
    8000166e:	fc843783          	ld	a5,-56(s0)
    80001672:	5f9c                	lw	a5,56(a5)
    80001674:	8fb9                	xor	a5,a5,a4
    80001676:	fcf42a23          	sw	a5,-44(s0)
    8000167a:	fe042783          	lw	a5,-32(s0)
    8000167e:	0187d79b          	srliw	a5,a5,0x18
    80001682:	2781                	sext.w	a5,a5
    80001684:	00005717          	auipc	a4,0x5
    80001688:	d6470713          	addi	a4,a4,-668 # 800063e8 <Te0>
    8000168c:	1782                	slli	a5,a5,0x20
    8000168e:	9381                	srli	a5,a5,0x20
    80001690:	078a                	slli	a5,a5,0x2
    80001692:	97ba                	add	a5,a5,a4
    80001694:	4394                	lw	a3,0(a5)
    80001696:	fec42783          	lw	a5,-20(s0)
    8000169a:	0107d79b          	srliw	a5,a5,0x10
    8000169e:	2781                	sext.w	a5,a5
    800016a0:	0ff7f793          	andi	a5,a5,255
    800016a4:	2781                	sext.w	a5,a5
    800016a6:	00005717          	auipc	a4,0x5
    800016aa:	14270713          	addi	a4,a4,322 # 800067e8 <Te1>
    800016ae:	1782                	slli	a5,a5,0x20
    800016b0:	9381                	srli	a5,a5,0x20
    800016b2:	078a                	slli	a5,a5,0x2
    800016b4:	97ba                	add	a5,a5,a4
    800016b6:	439c                	lw	a5,0(a5)
    800016b8:	8736                	mv	a4,a3
    800016ba:	8fb9                	xor	a5,a5,a4
    800016bc:	0007869b          	sext.w	a3,a5
    800016c0:	fe842783          	lw	a5,-24(s0)
    800016c4:	0087d79b          	srliw	a5,a5,0x8
    800016c8:	2781                	sext.w	a5,a5
    800016ca:	0ff7f793          	andi	a5,a5,255
    800016ce:	2781                	sext.w	a5,a5
    800016d0:	00005717          	auipc	a4,0x5
    800016d4:	51870713          	addi	a4,a4,1304 # 80006be8 <Te2>
    800016d8:	1782                	slli	a5,a5,0x20
    800016da:	9381                	srli	a5,a5,0x20
    800016dc:	078a                	slli	a5,a5,0x2
    800016de:	97ba                	add	a5,a5,a4
    800016e0:	439c                	lw	a5,0(a5)
    800016e2:	8736                	mv	a4,a3
    800016e4:	8fb9                	xor	a5,a5,a4
    800016e6:	0007869b          	sext.w	a3,a5
    800016ea:	fe442783          	lw	a5,-28(s0)
    800016ee:	0ff7f793          	andi	a5,a5,255
    800016f2:	2781                	sext.w	a5,a5
    800016f4:	00006717          	auipc	a4,0x6
    800016f8:	8f470713          	addi	a4,a4,-1804 # 80006fe8 <Te3>
    800016fc:	1782                	slli	a5,a5,0x20
    800016fe:	9381                	srli	a5,a5,0x20
    80001700:	078a                	slli	a5,a5,0x2
    80001702:	97ba                	add	a5,a5,a4
    80001704:	439c                	lw	a5,0(a5)
    80001706:	8736                	mv	a4,a3
    80001708:	8fb9                	xor	a5,a5,a4
    8000170a:	0007871b          	sext.w	a4,a5
    8000170e:	fc843783          	ld	a5,-56(s0)
    80001712:	5fdc                	lw	a5,60(a5)
    80001714:	8fb9                	xor	a5,a5,a4
    80001716:	fcf42823          	sw	a5,-48(s0)
    8000171a:	fdc42783          	lw	a5,-36(s0)
    8000171e:	0187d79b          	srliw	a5,a5,0x18
    80001722:	2781                	sext.w	a5,a5
    80001724:	00005717          	auipc	a4,0x5
    80001728:	cc470713          	addi	a4,a4,-828 # 800063e8 <Te0>
    8000172c:	1782                	slli	a5,a5,0x20
    8000172e:	9381                	srli	a5,a5,0x20
    80001730:	078a                	slli	a5,a5,0x2
    80001732:	97ba                	add	a5,a5,a4
    80001734:	4394                	lw	a3,0(a5)
    80001736:	fd842783          	lw	a5,-40(s0)
    8000173a:	0107d79b          	srliw	a5,a5,0x10
    8000173e:	2781                	sext.w	a5,a5
    80001740:	0ff7f793          	andi	a5,a5,255
    80001744:	2781                	sext.w	a5,a5
    80001746:	00005717          	auipc	a4,0x5
    8000174a:	0a270713          	addi	a4,a4,162 # 800067e8 <Te1>
    8000174e:	1782                	slli	a5,a5,0x20
    80001750:	9381                	srli	a5,a5,0x20
    80001752:	078a                	slli	a5,a5,0x2
    80001754:	97ba                	add	a5,a5,a4
    80001756:	439c                	lw	a5,0(a5)
    80001758:	8736                	mv	a4,a3
    8000175a:	8fb9                	xor	a5,a5,a4
    8000175c:	0007869b          	sext.w	a3,a5
    80001760:	fd442783          	lw	a5,-44(s0)
    80001764:	0087d79b          	srliw	a5,a5,0x8
    80001768:	2781                	sext.w	a5,a5
    8000176a:	0ff7f793          	andi	a5,a5,255
    8000176e:	2781                	sext.w	a5,a5
    80001770:	00005717          	auipc	a4,0x5
    80001774:	47870713          	addi	a4,a4,1144 # 80006be8 <Te2>
    80001778:	1782                	slli	a5,a5,0x20
    8000177a:	9381                	srli	a5,a5,0x20
    8000177c:	078a                	slli	a5,a5,0x2
    8000177e:	97ba                	add	a5,a5,a4
    80001780:	439c                	lw	a5,0(a5)
    80001782:	8736                	mv	a4,a3
    80001784:	8fb9                	xor	a5,a5,a4
    80001786:	0007869b          	sext.w	a3,a5
    8000178a:	fd042783          	lw	a5,-48(s0)
    8000178e:	0ff7f793          	andi	a5,a5,255
    80001792:	2781                	sext.w	a5,a5
    80001794:	00006717          	auipc	a4,0x6
    80001798:	85470713          	addi	a4,a4,-1964 # 80006fe8 <Te3>
    8000179c:	1782                	slli	a5,a5,0x20
    8000179e:	9381                	srli	a5,a5,0x20
    800017a0:	078a                	slli	a5,a5,0x2
    800017a2:	97ba                	add	a5,a5,a4
    800017a4:	439c                	lw	a5,0(a5)
    800017a6:	8736                	mv	a4,a3
    800017a8:	8fb9                	xor	a5,a5,a4
    800017aa:	0007871b          	sext.w	a4,a5
    800017ae:	fc843783          	ld	a5,-56(s0)
    800017b2:	43bc                	lw	a5,64(a5)
    800017b4:	8fb9                	xor	a5,a5,a4
    800017b6:	fef42623          	sw	a5,-20(s0)
    800017ba:	fd842783          	lw	a5,-40(s0)
    800017be:	0187d79b          	srliw	a5,a5,0x18
    800017c2:	2781                	sext.w	a5,a5
    800017c4:	00005717          	auipc	a4,0x5
    800017c8:	c2470713          	addi	a4,a4,-988 # 800063e8 <Te0>
    800017cc:	1782                	slli	a5,a5,0x20
    800017ce:	9381                	srli	a5,a5,0x20
    800017d0:	078a                	slli	a5,a5,0x2
    800017d2:	97ba                	add	a5,a5,a4
    800017d4:	4394                	lw	a3,0(a5)
    800017d6:	fd442783          	lw	a5,-44(s0)
    800017da:	0107d79b          	srliw	a5,a5,0x10
    800017de:	2781                	sext.w	a5,a5
    800017e0:	0ff7f793          	andi	a5,a5,255
    800017e4:	2781                	sext.w	a5,a5
    800017e6:	00005717          	auipc	a4,0x5
    800017ea:	00270713          	addi	a4,a4,2 # 800067e8 <Te1>
    800017ee:	1782                	slli	a5,a5,0x20
    800017f0:	9381                	srli	a5,a5,0x20
    800017f2:	078a                	slli	a5,a5,0x2
    800017f4:	97ba                	add	a5,a5,a4
    800017f6:	439c                	lw	a5,0(a5)
    800017f8:	8736                	mv	a4,a3
    800017fa:	8fb9                	xor	a5,a5,a4
    800017fc:	0007869b          	sext.w	a3,a5
    80001800:	fd042783          	lw	a5,-48(s0)
    80001804:	0087d79b          	srliw	a5,a5,0x8
    80001808:	2781                	sext.w	a5,a5
    8000180a:	0ff7f793          	andi	a5,a5,255
    8000180e:	2781                	sext.w	a5,a5
    80001810:	00005717          	auipc	a4,0x5
    80001814:	3d870713          	addi	a4,a4,984 # 80006be8 <Te2>
    80001818:	1782                	slli	a5,a5,0x20
    8000181a:	9381                	srli	a5,a5,0x20
    8000181c:	078a                	slli	a5,a5,0x2
    8000181e:	97ba                	add	a5,a5,a4
    80001820:	439c                	lw	a5,0(a5)
    80001822:	8736                	mv	a4,a3
    80001824:	8fb9                	xor	a5,a5,a4
    80001826:	0007869b          	sext.w	a3,a5
    8000182a:	fdc42783          	lw	a5,-36(s0)
    8000182e:	0ff7f793          	andi	a5,a5,255
    80001832:	2781                	sext.w	a5,a5
    80001834:	00005717          	auipc	a4,0x5
    80001838:	7b470713          	addi	a4,a4,1972 # 80006fe8 <Te3>
    8000183c:	1782                	slli	a5,a5,0x20
    8000183e:	9381                	srli	a5,a5,0x20
    80001840:	078a                	slli	a5,a5,0x2
    80001842:	97ba                	add	a5,a5,a4
    80001844:	439c                	lw	a5,0(a5)
    80001846:	8736                	mv	a4,a3
    80001848:	8fb9                	xor	a5,a5,a4
    8000184a:	0007871b          	sext.w	a4,a5
    8000184e:	fc843783          	ld	a5,-56(s0)
    80001852:	43fc                	lw	a5,68(a5)
    80001854:	8fb9                	xor	a5,a5,a4
    80001856:	fef42423          	sw	a5,-24(s0)
    8000185a:	fd442783          	lw	a5,-44(s0)
    8000185e:	0187d79b          	srliw	a5,a5,0x18
    80001862:	2781                	sext.w	a5,a5
    80001864:	00005717          	auipc	a4,0x5
    80001868:	b8470713          	addi	a4,a4,-1148 # 800063e8 <Te0>
    8000186c:	1782                	slli	a5,a5,0x20
    8000186e:	9381                	srli	a5,a5,0x20
    80001870:	078a                	slli	a5,a5,0x2
    80001872:	97ba                	add	a5,a5,a4
    80001874:	4394                	lw	a3,0(a5)
    80001876:	fd042783          	lw	a5,-48(s0)
    8000187a:	0107d79b          	srliw	a5,a5,0x10
    8000187e:	2781                	sext.w	a5,a5
    80001880:	0ff7f793          	andi	a5,a5,255
    80001884:	2781                	sext.w	a5,a5
    80001886:	00005717          	auipc	a4,0x5
    8000188a:	f6270713          	addi	a4,a4,-158 # 800067e8 <Te1>
    8000188e:	1782                	slli	a5,a5,0x20
    80001890:	9381                	srli	a5,a5,0x20
    80001892:	078a                	slli	a5,a5,0x2
    80001894:	97ba                	add	a5,a5,a4
    80001896:	439c                	lw	a5,0(a5)
    80001898:	8736                	mv	a4,a3
    8000189a:	8fb9                	xor	a5,a5,a4
    8000189c:	0007869b          	sext.w	a3,a5
    800018a0:	fdc42783          	lw	a5,-36(s0)
    800018a4:	0087d79b          	srliw	a5,a5,0x8
    800018a8:	2781                	sext.w	a5,a5
    800018aa:	0ff7f793          	andi	a5,a5,255
    800018ae:	2781                	sext.w	a5,a5
    800018b0:	00005717          	auipc	a4,0x5
    800018b4:	33870713          	addi	a4,a4,824 # 80006be8 <Te2>
    800018b8:	1782                	slli	a5,a5,0x20
    800018ba:	9381                	srli	a5,a5,0x20
    800018bc:	078a                	slli	a5,a5,0x2
    800018be:	97ba                	add	a5,a5,a4
    800018c0:	439c                	lw	a5,0(a5)
    800018c2:	8736                	mv	a4,a3
    800018c4:	8fb9                	xor	a5,a5,a4
    800018c6:	0007869b          	sext.w	a3,a5
    800018ca:	fd842783          	lw	a5,-40(s0)
    800018ce:	0ff7f793          	andi	a5,a5,255
    800018d2:	2781                	sext.w	a5,a5
    800018d4:	00005717          	auipc	a4,0x5
    800018d8:	71470713          	addi	a4,a4,1812 # 80006fe8 <Te3>
    800018dc:	1782                	slli	a5,a5,0x20
    800018de:	9381                	srli	a5,a5,0x20
    800018e0:	078a                	slli	a5,a5,0x2
    800018e2:	97ba                	add	a5,a5,a4
    800018e4:	439c                	lw	a5,0(a5)
    800018e6:	8736                	mv	a4,a3
    800018e8:	8fb9                	xor	a5,a5,a4
    800018ea:	0007871b          	sext.w	a4,a5
    800018ee:	fc843783          	ld	a5,-56(s0)
    800018f2:	47bc                	lw	a5,72(a5)
    800018f4:	8fb9                	xor	a5,a5,a4
    800018f6:	fef42223          	sw	a5,-28(s0)
    800018fa:	fd042783          	lw	a5,-48(s0)
    800018fe:	0187d79b          	srliw	a5,a5,0x18
    80001902:	2781                	sext.w	a5,a5
    80001904:	00005717          	auipc	a4,0x5
    80001908:	ae470713          	addi	a4,a4,-1308 # 800063e8 <Te0>
    8000190c:	1782                	slli	a5,a5,0x20
    8000190e:	9381                	srli	a5,a5,0x20
    80001910:	078a                	slli	a5,a5,0x2
    80001912:	97ba                	add	a5,a5,a4
    80001914:	4394                	lw	a3,0(a5)
    80001916:	fdc42783          	lw	a5,-36(s0)
    8000191a:	0107d79b          	srliw	a5,a5,0x10
    8000191e:	2781                	sext.w	a5,a5
    80001920:	0ff7f793          	andi	a5,a5,255
    80001924:	2781                	sext.w	a5,a5
    80001926:	00005717          	auipc	a4,0x5
    8000192a:	ec270713          	addi	a4,a4,-318 # 800067e8 <Te1>
    8000192e:	1782                	slli	a5,a5,0x20
    80001930:	9381                	srli	a5,a5,0x20
    80001932:	078a                	slli	a5,a5,0x2
    80001934:	97ba                	add	a5,a5,a4
    80001936:	439c                	lw	a5,0(a5)
    80001938:	8736                	mv	a4,a3
    8000193a:	8fb9                	xor	a5,a5,a4
    8000193c:	0007869b          	sext.w	a3,a5
    80001940:	fd842783          	lw	a5,-40(s0)
    80001944:	0087d79b          	srliw	a5,a5,0x8
    80001948:	2781                	sext.w	a5,a5
    8000194a:	0ff7f793          	andi	a5,a5,255
    8000194e:	2781                	sext.w	a5,a5
    80001950:	00005717          	auipc	a4,0x5
    80001954:	29870713          	addi	a4,a4,664 # 80006be8 <Te2>
    80001958:	1782                	slli	a5,a5,0x20
    8000195a:	9381                	srli	a5,a5,0x20
    8000195c:	078a                	slli	a5,a5,0x2
    8000195e:	97ba                	add	a5,a5,a4
    80001960:	439c                	lw	a5,0(a5)
    80001962:	8736                	mv	a4,a3
    80001964:	8fb9                	xor	a5,a5,a4
    80001966:	0007869b          	sext.w	a3,a5
    8000196a:	fd442783          	lw	a5,-44(s0)
    8000196e:	0ff7f793          	andi	a5,a5,255
    80001972:	2781                	sext.w	a5,a5
    80001974:	00005717          	auipc	a4,0x5
    80001978:	67470713          	addi	a4,a4,1652 # 80006fe8 <Te3>
    8000197c:	1782                	slli	a5,a5,0x20
    8000197e:	9381                	srli	a5,a5,0x20
    80001980:	078a                	slli	a5,a5,0x2
    80001982:	97ba                	add	a5,a5,a4
    80001984:	439c                	lw	a5,0(a5)
    80001986:	8736                	mv	a4,a3
    80001988:	8fb9                	xor	a5,a5,a4
    8000198a:	0007871b          	sext.w	a4,a5
    8000198e:	fc843783          	ld	a5,-56(s0)
    80001992:	47fc                	lw	a5,76(a5)
    80001994:	8fb9                	xor	a5,a5,a4
    80001996:	fef42023          	sw	a5,-32(s0)
    8000199a:	fec42783          	lw	a5,-20(s0)
    8000199e:	0187d79b          	srliw	a5,a5,0x18
    800019a2:	2781                	sext.w	a5,a5
    800019a4:	00005717          	auipc	a4,0x5
    800019a8:	a4470713          	addi	a4,a4,-1468 # 800063e8 <Te0>
    800019ac:	1782                	slli	a5,a5,0x20
    800019ae:	9381                	srli	a5,a5,0x20
    800019b0:	078a                	slli	a5,a5,0x2
    800019b2:	97ba                	add	a5,a5,a4
    800019b4:	4394                	lw	a3,0(a5)
    800019b6:	fe842783          	lw	a5,-24(s0)
    800019ba:	0107d79b          	srliw	a5,a5,0x10
    800019be:	2781                	sext.w	a5,a5
    800019c0:	0ff7f793          	andi	a5,a5,255
    800019c4:	2781                	sext.w	a5,a5
    800019c6:	00005717          	auipc	a4,0x5
    800019ca:	e2270713          	addi	a4,a4,-478 # 800067e8 <Te1>
    800019ce:	1782                	slli	a5,a5,0x20
    800019d0:	9381                	srli	a5,a5,0x20
    800019d2:	078a                	slli	a5,a5,0x2
    800019d4:	97ba                	add	a5,a5,a4
    800019d6:	439c                	lw	a5,0(a5)
    800019d8:	8736                	mv	a4,a3
    800019da:	8fb9                	xor	a5,a5,a4
    800019dc:	0007869b          	sext.w	a3,a5
    800019e0:	fe442783          	lw	a5,-28(s0)
    800019e4:	0087d79b          	srliw	a5,a5,0x8
    800019e8:	2781                	sext.w	a5,a5
    800019ea:	0ff7f793          	andi	a5,a5,255
    800019ee:	2781                	sext.w	a5,a5
    800019f0:	00005717          	auipc	a4,0x5
    800019f4:	1f870713          	addi	a4,a4,504 # 80006be8 <Te2>
    800019f8:	1782                	slli	a5,a5,0x20
    800019fa:	9381                	srli	a5,a5,0x20
    800019fc:	078a                	slli	a5,a5,0x2
    800019fe:	97ba                	add	a5,a5,a4
    80001a00:	439c                	lw	a5,0(a5)
    80001a02:	8736                	mv	a4,a3
    80001a04:	8fb9                	xor	a5,a5,a4
    80001a06:	0007869b          	sext.w	a3,a5
    80001a0a:	fe042783          	lw	a5,-32(s0)
    80001a0e:	0ff7f793          	andi	a5,a5,255
    80001a12:	2781                	sext.w	a5,a5
    80001a14:	00005717          	auipc	a4,0x5
    80001a18:	5d470713          	addi	a4,a4,1492 # 80006fe8 <Te3>
    80001a1c:	1782                	slli	a5,a5,0x20
    80001a1e:	9381                	srli	a5,a5,0x20
    80001a20:	078a                	slli	a5,a5,0x2
    80001a22:	97ba                	add	a5,a5,a4
    80001a24:	439c                	lw	a5,0(a5)
    80001a26:	8736                	mv	a4,a3
    80001a28:	8fb9                	xor	a5,a5,a4
    80001a2a:	0007871b          	sext.w	a4,a5
    80001a2e:	fc843783          	ld	a5,-56(s0)
    80001a32:	4bbc                	lw	a5,80(a5)
    80001a34:	8fb9                	xor	a5,a5,a4
    80001a36:	fcf42e23          	sw	a5,-36(s0)
    80001a3a:	fe842783          	lw	a5,-24(s0)
    80001a3e:	0187d79b          	srliw	a5,a5,0x18
    80001a42:	2781                	sext.w	a5,a5
    80001a44:	00005717          	auipc	a4,0x5
    80001a48:	9a470713          	addi	a4,a4,-1628 # 800063e8 <Te0>
    80001a4c:	1782                	slli	a5,a5,0x20
    80001a4e:	9381                	srli	a5,a5,0x20
    80001a50:	078a                	slli	a5,a5,0x2
    80001a52:	97ba                	add	a5,a5,a4
    80001a54:	4394                	lw	a3,0(a5)
    80001a56:	fe442783          	lw	a5,-28(s0)
    80001a5a:	0107d79b          	srliw	a5,a5,0x10
    80001a5e:	2781                	sext.w	a5,a5
    80001a60:	0ff7f793          	andi	a5,a5,255
    80001a64:	2781                	sext.w	a5,a5
    80001a66:	00005717          	auipc	a4,0x5
    80001a6a:	d8270713          	addi	a4,a4,-638 # 800067e8 <Te1>
    80001a6e:	1782                	slli	a5,a5,0x20
    80001a70:	9381                	srli	a5,a5,0x20
    80001a72:	078a                	slli	a5,a5,0x2
    80001a74:	97ba                	add	a5,a5,a4
    80001a76:	439c                	lw	a5,0(a5)
    80001a78:	8736                	mv	a4,a3
    80001a7a:	8fb9                	xor	a5,a5,a4
    80001a7c:	0007869b          	sext.w	a3,a5
    80001a80:	fe042783          	lw	a5,-32(s0)
    80001a84:	0087d79b          	srliw	a5,a5,0x8
    80001a88:	2781                	sext.w	a5,a5
    80001a8a:	0ff7f793          	andi	a5,a5,255
    80001a8e:	2781                	sext.w	a5,a5
    80001a90:	00005717          	auipc	a4,0x5
    80001a94:	15870713          	addi	a4,a4,344 # 80006be8 <Te2>
    80001a98:	1782                	slli	a5,a5,0x20
    80001a9a:	9381                	srli	a5,a5,0x20
    80001a9c:	078a                	slli	a5,a5,0x2
    80001a9e:	97ba                	add	a5,a5,a4
    80001aa0:	439c                	lw	a5,0(a5)
    80001aa2:	8736                	mv	a4,a3
    80001aa4:	8fb9                	xor	a5,a5,a4
    80001aa6:	0007869b          	sext.w	a3,a5
    80001aaa:	fec42783          	lw	a5,-20(s0)
    80001aae:	0ff7f793          	andi	a5,a5,255
    80001ab2:	2781                	sext.w	a5,a5
    80001ab4:	00005717          	auipc	a4,0x5
    80001ab8:	53470713          	addi	a4,a4,1332 # 80006fe8 <Te3>
    80001abc:	1782                	slli	a5,a5,0x20
    80001abe:	9381                	srli	a5,a5,0x20
    80001ac0:	078a                	slli	a5,a5,0x2
    80001ac2:	97ba                	add	a5,a5,a4
    80001ac4:	439c                	lw	a5,0(a5)
    80001ac6:	8736                	mv	a4,a3
    80001ac8:	8fb9                	xor	a5,a5,a4
    80001aca:	0007871b          	sext.w	a4,a5
    80001ace:	fc843783          	ld	a5,-56(s0)
    80001ad2:	4bfc                	lw	a5,84(a5)
    80001ad4:	8fb9                	xor	a5,a5,a4
    80001ad6:	fcf42c23          	sw	a5,-40(s0)
    80001ada:	fe442783          	lw	a5,-28(s0)
    80001ade:	0187d79b          	srliw	a5,a5,0x18
    80001ae2:	2781                	sext.w	a5,a5
    80001ae4:	00005717          	auipc	a4,0x5
    80001ae8:	90470713          	addi	a4,a4,-1788 # 800063e8 <Te0>
    80001aec:	1782                	slli	a5,a5,0x20
    80001aee:	9381                	srli	a5,a5,0x20
    80001af0:	078a                	slli	a5,a5,0x2
    80001af2:	97ba                	add	a5,a5,a4
    80001af4:	4394                	lw	a3,0(a5)
    80001af6:	fe042783          	lw	a5,-32(s0)
    80001afa:	0107d79b          	srliw	a5,a5,0x10
    80001afe:	2781                	sext.w	a5,a5
    80001b00:	0ff7f793          	andi	a5,a5,255
    80001b04:	2781                	sext.w	a5,a5
    80001b06:	00005717          	auipc	a4,0x5
    80001b0a:	ce270713          	addi	a4,a4,-798 # 800067e8 <Te1>
    80001b0e:	1782                	slli	a5,a5,0x20
    80001b10:	9381                	srli	a5,a5,0x20
    80001b12:	078a                	slli	a5,a5,0x2
    80001b14:	97ba                	add	a5,a5,a4
    80001b16:	439c                	lw	a5,0(a5)
    80001b18:	8736                	mv	a4,a3
    80001b1a:	8fb9                	xor	a5,a5,a4
    80001b1c:	0007869b          	sext.w	a3,a5
    80001b20:	fec42783          	lw	a5,-20(s0)
    80001b24:	0087d79b          	srliw	a5,a5,0x8
    80001b28:	2781                	sext.w	a5,a5
    80001b2a:	0ff7f793          	andi	a5,a5,255
    80001b2e:	2781                	sext.w	a5,a5
    80001b30:	00005717          	auipc	a4,0x5
    80001b34:	0b870713          	addi	a4,a4,184 # 80006be8 <Te2>
    80001b38:	1782                	slli	a5,a5,0x20
    80001b3a:	9381                	srli	a5,a5,0x20
    80001b3c:	078a                	slli	a5,a5,0x2
    80001b3e:	97ba                	add	a5,a5,a4
    80001b40:	439c                	lw	a5,0(a5)
    80001b42:	8736                	mv	a4,a3
    80001b44:	8fb9                	xor	a5,a5,a4
    80001b46:	0007869b          	sext.w	a3,a5
    80001b4a:	fe842783          	lw	a5,-24(s0)
    80001b4e:	0ff7f793          	andi	a5,a5,255
    80001b52:	2781                	sext.w	a5,a5
    80001b54:	00005717          	auipc	a4,0x5
    80001b58:	49470713          	addi	a4,a4,1172 # 80006fe8 <Te3>
    80001b5c:	1782                	slli	a5,a5,0x20
    80001b5e:	9381                	srli	a5,a5,0x20
    80001b60:	078a                	slli	a5,a5,0x2
    80001b62:	97ba                	add	a5,a5,a4
    80001b64:	439c                	lw	a5,0(a5)
    80001b66:	8736                	mv	a4,a3
    80001b68:	8fb9                	xor	a5,a5,a4
    80001b6a:	0007871b          	sext.w	a4,a5
    80001b6e:	fc843783          	ld	a5,-56(s0)
    80001b72:	4fbc                	lw	a5,88(a5)
    80001b74:	8fb9                	xor	a5,a5,a4
    80001b76:	fcf42a23          	sw	a5,-44(s0)
    80001b7a:	fe042783          	lw	a5,-32(s0)
    80001b7e:	0187d79b          	srliw	a5,a5,0x18
    80001b82:	2781                	sext.w	a5,a5
    80001b84:	00005717          	auipc	a4,0x5
    80001b88:	86470713          	addi	a4,a4,-1948 # 800063e8 <Te0>
    80001b8c:	1782                	slli	a5,a5,0x20
    80001b8e:	9381                	srli	a5,a5,0x20
    80001b90:	078a                	slli	a5,a5,0x2
    80001b92:	97ba                	add	a5,a5,a4
    80001b94:	4394                	lw	a3,0(a5)
    80001b96:	fec42783          	lw	a5,-20(s0)
    80001b9a:	0107d79b          	srliw	a5,a5,0x10
    80001b9e:	2781                	sext.w	a5,a5
    80001ba0:	0ff7f793          	andi	a5,a5,255
    80001ba4:	2781                	sext.w	a5,a5
    80001ba6:	00005717          	auipc	a4,0x5
    80001baa:	c4270713          	addi	a4,a4,-958 # 800067e8 <Te1>
    80001bae:	1782                	slli	a5,a5,0x20
    80001bb0:	9381                	srli	a5,a5,0x20
    80001bb2:	078a                	slli	a5,a5,0x2
    80001bb4:	97ba                	add	a5,a5,a4
    80001bb6:	439c                	lw	a5,0(a5)
    80001bb8:	8736                	mv	a4,a3
    80001bba:	8fb9                	xor	a5,a5,a4
    80001bbc:	0007869b          	sext.w	a3,a5
    80001bc0:	fe842783          	lw	a5,-24(s0)
    80001bc4:	0087d79b          	srliw	a5,a5,0x8
    80001bc8:	2781                	sext.w	a5,a5
    80001bca:	0ff7f793          	andi	a5,a5,255
    80001bce:	2781                	sext.w	a5,a5
    80001bd0:	00005717          	auipc	a4,0x5
    80001bd4:	01870713          	addi	a4,a4,24 # 80006be8 <Te2>
    80001bd8:	1782                	slli	a5,a5,0x20
    80001bda:	9381                	srli	a5,a5,0x20
    80001bdc:	078a                	slli	a5,a5,0x2
    80001bde:	97ba                	add	a5,a5,a4
    80001be0:	439c                	lw	a5,0(a5)
    80001be2:	8736                	mv	a4,a3
    80001be4:	8fb9                	xor	a5,a5,a4
    80001be6:	0007869b          	sext.w	a3,a5
    80001bea:	fe442783          	lw	a5,-28(s0)
    80001bee:	0ff7f793          	andi	a5,a5,255
    80001bf2:	2781                	sext.w	a5,a5
    80001bf4:	00005717          	auipc	a4,0x5
    80001bf8:	3f470713          	addi	a4,a4,1012 # 80006fe8 <Te3>
    80001bfc:	1782                	slli	a5,a5,0x20
    80001bfe:	9381                	srli	a5,a5,0x20
    80001c00:	078a                	slli	a5,a5,0x2
    80001c02:	97ba                	add	a5,a5,a4
    80001c04:	439c                	lw	a5,0(a5)
    80001c06:	8736                	mv	a4,a3
    80001c08:	8fb9                	xor	a5,a5,a4
    80001c0a:	0007871b          	sext.w	a4,a5
    80001c0e:	fc843783          	ld	a5,-56(s0)
    80001c12:	4ffc                	lw	a5,92(a5)
    80001c14:	8fb9                	xor	a5,a5,a4
    80001c16:	fcf42823          	sw	a5,-48(s0)
    80001c1a:	fdc42783          	lw	a5,-36(s0)
    80001c1e:	0187d79b          	srliw	a5,a5,0x18
    80001c22:	2781                	sext.w	a5,a5
    80001c24:	00004717          	auipc	a4,0x4
    80001c28:	7c470713          	addi	a4,a4,1988 # 800063e8 <Te0>
    80001c2c:	1782                	slli	a5,a5,0x20
    80001c2e:	9381                	srli	a5,a5,0x20
    80001c30:	078a                	slli	a5,a5,0x2
    80001c32:	97ba                	add	a5,a5,a4
    80001c34:	4394                	lw	a3,0(a5)
    80001c36:	fd842783          	lw	a5,-40(s0)
    80001c3a:	0107d79b          	srliw	a5,a5,0x10
    80001c3e:	2781                	sext.w	a5,a5
    80001c40:	0ff7f793          	andi	a5,a5,255
    80001c44:	2781                	sext.w	a5,a5
    80001c46:	00005717          	auipc	a4,0x5
    80001c4a:	ba270713          	addi	a4,a4,-1118 # 800067e8 <Te1>
    80001c4e:	1782                	slli	a5,a5,0x20
    80001c50:	9381                	srli	a5,a5,0x20
    80001c52:	078a                	slli	a5,a5,0x2
    80001c54:	97ba                	add	a5,a5,a4
    80001c56:	439c                	lw	a5,0(a5)
    80001c58:	8736                	mv	a4,a3
    80001c5a:	8fb9                	xor	a5,a5,a4
    80001c5c:	0007869b          	sext.w	a3,a5
    80001c60:	fd442783          	lw	a5,-44(s0)
    80001c64:	0087d79b          	srliw	a5,a5,0x8
    80001c68:	2781                	sext.w	a5,a5
    80001c6a:	0ff7f793          	andi	a5,a5,255
    80001c6e:	2781                	sext.w	a5,a5
    80001c70:	00005717          	auipc	a4,0x5
    80001c74:	f7870713          	addi	a4,a4,-136 # 80006be8 <Te2>
    80001c78:	1782                	slli	a5,a5,0x20
    80001c7a:	9381                	srli	a5,a5,0x20
    80001c7c:	078a                	slli	a5,a5,0x2
    80001c7e:	97ba                	add	a5,a5,a4
    80001c80:	439c                	lw	a5,0(a5)
    80001c82:	8736                	mv	a4,a3
    80001c84:	8fb9                	xor	a5,a5,a4
    80001c86:	0007869b          	sext.w	a3,a5
    80001c8a:	fd042783          	lw	a5,-48(s0)
    80001c8e:	0ff7f793          	andi	a5,a5,255
    80001c92:	2781                	sext.w	a5,a5
    80001c94:	00005717          	auipc	a4,0x5
    80001c98:	35470713          	addi	a4,a4,852 # 80006fe8 <Te3>
    80001c9c:	1782                	slli	a5,a5,0x20
    80001c9e:	9381                	srli	a5,a5,0x20
    80001ca0:	078a                	slli	a5,a5,0x2
    80001ca2:	97ba                	add	a5,a5,a4
    80001ca4:	439c                	lw	a5,0(a5)
    80001ca6:	8736                	mv	a4,a3
    80001ca8:	8fb9                	xor	a5,a5,a4
    80001caa:	0007871b          	sext.w	a4,a5
    80001cae:	fc843783          	ld	a5,-56(s0)
    80001cb2:	53bc                	lw	a5,96(a5)
    80001cb4:	8fb9                	xor	a5,a5,a4
    80001cb6:	fef42623          	sw	a5,-20(s0)
    80001cba:	fd842783          	lw	a5,-40(s0)
    80001cbe:	0187d79b          	srliw	a5,a5,0x18
    80001cc2:	2781                	sext.w	a5,a5
    80001cc4:	00004717          	auipc	a4,0x4
    80001cc8:	72470713          	addi	a4,a4,1828 # 800063e8 <Te0>
    80001ccc:	1782                	slli	a5,a5,0x20
    80001cce:	9381                	srli	a5,a5,0x20
    80001cd0:	078a                	slli	a5,a5,0x2
    80001cd2:	97ba                	add	a5,a5,a4
    80001cd4:	4394                	lw	a3,0(a5)
    80001cd6:	fd442783          	lw	a5,-44(s0)
    80001cda:	0107d79b          	srliw	a5,a5,0x10
    80001cde:	2781                	sext.w	a5,a5
    80001ce0:	0ff7f793          	andi	a5,a5,255
    80001ce4:	2781                	sext.w	a5,a5
    80001ce6:	00005717          	auipc	a4,0x5
    80001cea:	b0270713          	addi	a4,a4,-1278 # 800067e8 <Te1>
    80001cee:	1782                	slli	a5,a5,0x20
    80001cf0:	9381                	srli	a5,a5,0x20
    80001cf2:	078a                	slli	a5,a5,0x2
    80001cf4:	97ba                	add	a5,a5,a4
    80001cf6:	439c                	lw	a5,0(a5)
    80001cf8:	8736                	mv	a4,a3
    80001cfa:	8fb9                	xor	a5,a5,a4
    80001cfc:	0007869b          	sext.w	a3,a5
    80001d00:	fd042783          	lw	a5,-48(s0)
    80001d04:	0087d79b          	srliw	a5,a5,0x8
    80001d08:	2781                	sext.w	a5,a5
    80001d0a:	0ff7f793          	andi	a5,a5,255
    80001d0e:	2781                	sext.w	a5,a5
    80001d10:	00005717          	auipc	a4,0x5
    80001d14:	ed870713          	addi	a4,a4,-296 # 80006be8 <Te2>
    80001d18:	1782                	slli	a5,a5,0x20
    80001d1a:	9381                	srli	a5,a5,0x20
    80001d1c:	078a                	slli	a5,a5,0x2
    80001d1e:	97ba                	add	a5,a5,a4
    80001d20:	439c                	lw	a5,0(a5)
    80001d22:	8736                	mv	a4,a3
    80001d24:	8fb9                	xor	a5,a5,a4
    80001d26:	0007869b          	sext.w	a3,a5
    80001d2a:	fdc42783          	lw	a5,-36(s0)
    80001d2e:	0ff7f793          	andi	a5,a5,255
    80001d32:	2781                	sext.w	a5,a5
    80001d34:	00005717          	auipc	a4,0x5
    80001d38:	2b470713          	addi	a4,a4,692 # 80006fe8 <Te3>
    80001d3c:	1782                	slli	a5,a5,0x20
    80001d3e:	9381                	srli	a5,a5,0x20
    80001d40:	078a                	slli	a5,a5,0x2
    80001d42:	97ba                	add	a5,a5,a4
    80001d44:	439c                	lw	a5,0(a5)
    80001d46:	8736                	mv	a4,a3
    80001d48:	8fb9                	xor	a5,a5,a4
    80001d4a:	0007871b          	sext.w	a4,a5
    80001d4e:	fc843783          	ld	a5,-56(s0)
    80001d52:	53fc                	lw	a5,100(a5)
    80001d54:	8fb9                	xor	a5,a5,a4
    80001d56:	fef42423          	sw	a5,-24(s0)
    80001d5a:	fd442783          	lw	a5,-44(s0)
    80001d5e:	0187d79b          	srliw	a5,a5,0x18
    80001d62:	2781                	sext.w	a5,a5
    80001d64:	00004717          	auipc	a4,0x4
    80001d68:	68470713          	addi	a4,a4,1668 # 800063e8 <Te0>
    80001d6c:	1782                	slli	a5,a5,0x20
    80001d6e:	9381                	srli	a5,a5,0x20
    80001d70:	078a                	slli	a5,a5,0x2
    80001d72:	97ba                	add	a5,a5,a4
    80001d74:	4394                	lw	a3,0(a5)
    80001d76:	fd042783          	lw	a5,-48(s0)
    80001d7a:	0107d79b          	srliw	a5,a5,0x10
    80001d7e:	2781                	sext.w	a5,a5
    80001d80:	0ff7f793          	andi	a5,a5,255
    80001d84:	2781                	sext.w	a5,a5
    80001d86:	00005717          	auipc	a4,0x5
    80001d8a:	a6270713          	addi	a4,a4,-1438 # 800067e8 <Te1>
    80001d8e:	1782                	slli	a5,a5,0x20
    80001d90:	9381                	srli	a5,a5,0x20
    80001d92:	078a                	slli	a5,a5,0x2
    80001d94:	97ba                	add	a5,a5,a4
    80001d96:	439c                	lw	a5,0(a5)
    80001d98:	8736                	mv	a4,a3
    80001d9a:	8fb9                	xor	a5,a5,a4
    80001d9c:	0007869b          	sext.w	a3,a5
    80001da0:	fdc42783          	lw	a5,-36(s0)
    80001da4:	0087d79b          	srliw	a5,a5,0x8
    80001da8:	2781                	sext.w	a5,a5
    80001daa:	0ff7f793          	andi	a5,a5,255
    80001dae:	2781                	sext.w	a5,a5
    80001db0:	00005717          	auipc	a4,0x5
    80001db4:	e3870713          	addi	a4,a4,-456 # 80006be8 <Te2>
    80001db8:	1782                	slli	a5,a5,0x20
    80001dba:	9381                	srli	a5,a5,0x20
    80001dbc:	078a                	slli	a5,a5,0x2
    80001dbe:	97ba                	add	a5,a5,a4
    80001dc0:	439c                	lw	a5,0(a5)
    80001dc2:	8736                	mv	a4,a3
    80001dc4:	8fb9                	xor	a5,a5,a4
    80001dc6:	0007869b          	sext.w	a3,a5
    80001dca:	fd842783          	lw	a5,-40(s0)
    80001dce:	0ff7f793          	andi	a5,a5,255
    80001dd2:	2781                	sext.w	a5,a5
    80001dd4:	00005717          	auipc	a4,0x5
    80001dd8:	21470713          	addi	a4,a4,532 # 80006fe8 <Te3>
    80001ddc:	1782                	slli	a5,a5,0x20
    80001dde:	9381                	srli	a5,a5,0x20
    80001de0:	078a                	slli	a5,a5,0x2
    80001de2:	97ba                	add	a5,a5,a4
    80001de4:	439c                	lw	a5,0(a5)
    80001de6:	8736                	mv	a4,a3
    80001de8:	8fb9                	xor	a5,a5,a4
    80001dea:	0007871b          	sext.w	a4,a5
    80001dee:	fc843783          	ld	a5,-56(s0)
    80001df2:	57bc                	lw	a5,104(a5)
    80001df4:	8fb9                	xor	a5,a5,a4
    80001df6:	fef42223          	sw	a5,-28(s0)
    80001dfa:	fd042783          	lw	a5,-48(s0)
    80001dfe:	0187d79b          	srliw	a5,a5,0x18
    80001e02:	2781                	sext.w	a5,a5
    80001e04:	00004717          	auipc	a4,0x4
    80001e08:	5e470713          	addi	a4,a4,1508 # 800063e8 <Te0>
    80001e0c:	1782                	slli	a5,a5,0x20
    80001e0e:	9381                	srli	a5,a5,0x20
    80001e10:	078a                	slli	a5,a5,0x2
    80001e12:	97ba                	add	a5,a5,a4
    80001e14:	4394                	lw	a3,0(a5)
    80001e16:	fdc42783          	lw	a5,-36(s0)
    80001e1a:	0107d79b          	srliw	a5,a5,0x10
    80001e1e:	2781                	sext.w	a5,a5
    80001e20:	0ff7f793          	andi	a5,a5,255
    80001e24:	2781                	sext.w	a5,a5
    80001e26:	00005717          	auipc	a4,0x5
    80001e2a:	9c270713          	addi	a4,a4,-1598 # 800067e8 <Te1>
    80001e2e:	1782                	slli	a5,a5,0x20
    80001e30:	9381                	srli	a5,a5,0x20
    80001e32:	078a                	slli	a5,a5,0x2
    80001e34:	97ba                	add	a5,a5,a4
    80001e36:	439c                	lw	a5,0(a5)
    80001e38:	8736                	mv	a4,a3
    80001e3a:	8fb9                	xor	a5,a5,a4
    80001e3c:	0007869b          	sext.w	a3,a5
    80001e40:	fd842783          	lw	a5,-40(s0)
    80001e44:	0087d79b          	srliw	a5,a5,0x8
    80001e48:	2781                	sext.w	a5,a5
    80001e4a:	0ff7f793          	andi	a5,a5,255
    80001e4e:	2781                	sext.w	a5,a5
    80001e50:	00005717          	auipc	a4,0x5
    80001e54:	d9870713          	addi	a4,a4,-616 # 80006be8 <Te2>
    80001e58:	1782                	slli	a5,a5,0x20
    80001e5a:	9381                	srli	a5,a5,0x20
    80001e5c:	078a                	slli	a5,a5,0x2
    80001e5e:	97ba                	add	a5,a5,a4
    80001e60:	439c                	lw	a5,0(a5)
    80001e62:	8736                	mv	a4,a3
    80001e64:	8fb9                	xor	a5,a5,a4
    80001e66:	0007869b          	sext.w	a3,a5
    80001e6a:	fd442783          	lw	a5,-44(s0)
    80001e6e:	0ff7f793          	andi	a5,a5,255
    80001e72:	2781                	sext.w	a5,a5
    80001e74:	00005717          	auipc	a4,0x5
    80001e78:	17470713          	addi	a4,a4,372 # 80006fe8 <Te3>
    80001e7c:	1782                	slli	a5,a5,0x20
    80001e7e:	9381                	srli	a5,a5,0x20
    80001e80:	078a                	slli	a5,a5,0x2
    80001e82:	97ba                	add	a5,a5,a4
    80001e84:	439c                	lw	a5,0(a5)
    80001e86:	8736                	mv	a4,a3
    80001e88:	8fb9                	xor	a5,a5,a4
    80001e8a:	0007871b          	sext.w	a4,a5
    80001e8e:	fc843783          	ld	a5,-56(s0)
    80001e92:	57fc                	lw	a5,108(a5)
    80001e94:	8fb9                	xor	a5,a5,a4
    80001e96:	fef42023          	sw	a5,-32(s0)
    80001e9a:	fec42783          	lw	a5,-20(s0)
    80001e9e:	0187d79b          	srliw	a5,a5,0x18
    80001ea2:	2781                	sext.w	a5,a5
    80001ea4:	00004717          	auipc	a4,0x4
    80001ea8:	54470713          	addi	a4,a4,1348 # 800063e8 <Te0>
    80001eac:	1782                	slli	a5,a5,0x20
    80001eae:	9381                	srli	a5,a5,0x20
    80001eb0:	078a                	slli	a5,a5,0x2
    80001eb2:	97ba                	add	a5,a5,a4
    80001eb4:	4394                	lw	a3,0(a5)
    80001eb6:	fe842783          	lw	a5,-24(s0)
    80001eba:	0107d79b          	srliw	a5,a5,0x10
    80001ebe:	2781                	sext.w	a5,a5
    80001ec0:	0ff7f793          	andi	a5,a5,255
    80001ec4:	2781                	sext.w	a5,a5
    80001ec6:	00005717          	auipc	a4,0x5
    80001eca:	92270713          	addi	a4,a4,-1758 # 800067e8 <Te1>
    80001ece:	1782                	slli	a5,a5,0x20
    80001ed0:	9381                	srli	a5,a5,0x20
    80001ed2:	078a                	slli	a5,a5,0x2
    80001ed4:	97ba                	add	a5,a5,a4
    80001ed6:	439c                	lw	a5,0(a5)
    80001ed8:	8736                	mv	a4,a3
    80001eda:	8fb9                	xor	a5,a5,a4
    80001edc:	0007869b          	sext.w	a3,a5
    80001ee0:	fe442783          	lw	a5,-28(s0)
    80001ee4:	0087d79b          	srliw	a5,a5,0x8
    80001ee8:	2781                	sext.w	a5,a5
    80001eea:	0ff7f793          	andi	a5,a5,255
    80001eee:	2781                	sext.w	a5,a5
    80001ef0:	00005717          	auipc	a4,0x5
    80001ef4:	cf870713          	addi	a4,a4,-776 # 80006be8 <Te2>
    80001ef8:	1782                	slli	a5,a5,0x20
    80001efa:	9381                	srli	a5,a5,0x20
    80001efc:	078a                	slli	a5,a5,0x2
    80001efe:	97ba                	add	a5,a5,a4
    80001f00:	439c                	lw	a5,0(a5)
    80001f02:	8736                	mv	a4,a3
    80001f04:	8fb9                	xor	a5,a5,a4
    80001f06:	0007869b          	sext.w	a3,a5
    80001f0a:	fe042783          	lw	a5,-32(s0)
    80001f0e:	0ff7f793          	andi	a5,a5,255
    80001f12:	2781                	sext.w	a5,a5
    80001f14:	00005717          	auipc	a4,0x5
    80001f18:	0d470713          	addi	a4,a4,212 # 80006fe8 <Te3>
    80001f1c:	1782                	slli	a5,a5,0x20
    80001f1e:	9381                	srli	a5,a5,0x20
    80001f20:	078a                	slli	a5,a5,0x2
    80001f22:	97ba                	add	a5,a5,a4
    80001f24:	439c                	lw	a5,0(a5)
    80001f26:	8736                	mv	a4,a3
    80001f28:	8fb9                	xor	a5,a5,a4
    80001f2a:	0007871b          	sext.w	a4,a5
    80001f2e:	fc843783          	ld	a5,-56(s0)
    80001f32:	5bbc                	lw	a5,112(a5)
    80001f34:	8fb9                	xor	a5,a5,a4
    80001f36:	fcf42e23          	sw	a5,-36(s0)
    80001f3a:	fe842783          	lw	a5,-24(s0)
    80001f3e:	0187d79b          	srliw	a5,a5,0x18
    80001f42:	2781                	sext.w	a5,a5
    80001f44:	00004717          	auipc	a4,0x4
    80001f48:	4a470713          	addi	a4,a4,1188 # 800063e8 <Te0>
    80001f4c:	1782                	slli	a5,a5,0x20
    80001f4e:	9381                	srli	a5,a5,0x20
    80001f50:	078a                	slli	a5,a5,0x2
    80001f52:	97ba                	add	a5,a5,a4
    80001f54:	4394                	lw	a3,0(a5)
    80001f56:	fe442783          	lw	a5,-28(s0)
    80001f5a:	0107d79b          	srliw	a5,a5,0x10
    80001f5e:	2781                	sext.w	a5,a5
    80001f60:	0ff7f793          	andi	a5,a5,255
    80001f64:	2781                	sext.w	a5,a5
    80001f66:	00005717          	auipc	a4,0x5
    80001f6a:	88270713          	addi	a4,a4,-1918 # 800067e8 <Te1>
    80001f6e:	1782                	slli	a5,a5,0x20
    80001f70:	9381                	srli	a5,a5,0x20
    80001f72:	078a                	slli	a5,a5,0x2
    80001f74:	97ba                	add	a5,a5,a4
    80001f76:	439c                	lw	a5,0(a5)
    80001f78:	8736                	mv	a4,a3
    80001f7a:	8fb9                	xor	a5,a5,a4
    80001f7c:	0007869b          	sext.w	a3,a5
    80001f80:	fe042783          	lw	a5,-32(s0)
    80001f84:	0087d79b          	srliw	a5,a5,0x8
    80001f88:	2781                	sext.w	a5,a5
    80001f8a:	0ff7f793          	andi	a5,a5,255
    80001f8e:	2781                	sext.w	a5,a5
    80001f90:	00005717          	auipc	a4,0x5
    80001f94:	c5870713          	addi	a4,a4,-936 # 80006be8 <Te2>
    80001f98:	1782                	slli	a5,a5,0x20
    80001f9a:	9381                	srli	a5,a5,0x20
    80001f9c:	078a                	slli	a5,a5,0x2
    80001f9e:	97ba                	add	a5,a5,a4
    80001fa0:	439c                	lw	a5,0(a5)
    80001fa2:	8736                	mv	a4,a3
    80001fa4:	8fb9                	xor	a5,a5,a4
    80001fa6:	0007869b          	sext.w	a3,a5
    80001faa:	fec42783          	lw	a5,-20(s0)
    80001fae:	0ff7f793          	andi	a5,a5,255
    80001fb2:	2781                	sext.w	a5,a5
    80001fb4:	00005717          	auipc	a4,0x5
    80001fb8:	03470713          	addi	a4,a4,52 # 80006fe8 <Te3>
    80001fbc:	1782                	slli	a5,a5,0x20
    80001fbe:	9381                	srli	a5,a5,0x20
    80001fc0:	078a                	slli	a5,a5,0x2
    80001fc2:	97ba                	add	a5,a5,a4
    80001fc4:	439c                	lw	a5,0(a5)
    80001fc6:	8736                	mv	a4,a3
    80001fc8:	8fb9                	xor	a5,a5,a4
    80001fca:	0007871b          	sext.w	a4,a5
    80001fce:	fc843783          	ld	a5,-56(s0)
    80001fd2:	5bfc                	lw	a5,116(a5)
    80001fd4:	8fb9                	xor	a5,a5,a4
    80001fd6:	fcf42c23          	sw	a5,-40(s0)
    80001fda:	fe442783          	lw	a5,-28(s0)
    80001fde:	0187d79b          	srliw	a5,a5,0x18
    80001fe2:	2781                	sext.w	a5,a5
    80001fe4:	00004717          	auipc	a4,0x4
    80001fe8:	40470713          	addi	a4,a4,1028 # 800063e8 <Te0>
    80001fec:	1782                	slli	a5,a5,0x20
    80001fee:	9381                	srli	a5,a5,0x20
    80001ff0:	078a                	slli	a5,a5,0x2
    80001ff2:	97ba                	add	a5,a5,a4
    80001ff4:	4394                	lw	a3,0(a5)
    80001ff6:	fe042783          	lw	a5,-32(s0)
    80001ffa:	0107d79b          	srliw	a5,a5,0x10
    80001ffe:	2781                	sext.w	a5,a5
    80002000:	0ff7f793          	andi	a5,a5,255
    80002004:	2781                	sext.w	a5,a5
    80002006:	00004717          	auipc	a4,0x4
    8000200a:	7e270713          	addi	a4,a4,2018 # 800067e8 <Te1>
    8000200e:	1782                	slli	a5,a5,0x20
    80002010:	9381                	srli	a5,a5,0x20
    80002012:	078a                	slli	a5,a5,0x2
    80002014:	97ba                	add	a5,a5,a4
    80002016:	439c                	lw	a5,0(a5)
    80002018:	8736                	mv	a4,a3
    8000201a:	8fb9                	xor	a5,a5,a4
    8000201c:	0007869b          	sext.w	a3,a5
    80002020:	fec42783          	lw	a5,-20(s0)
    80002024:	0087d79b          	srliw	a5,a5,0x8
    80002028:	2781                	sext.w	a5,a5
    8000202a:	0ff7f793          	andi	a5,a5,255
    8000202e:	2781                	sext.w	a5,a5
    80002030:	00005717          	auipc	a4,0x5
    80002034:	bb870713          	addi	a4,a4,-1096 # 80006be8 <Te2>
    80002038:	1782                	slli	a5,a5,0x20
    8000203a:	9381                	srli	a5,a5,0x20
    8000203c:	078a                	slli	a5,a5,0x2
    8000203e:	97ba                	add	a5,a5,a4
    80002040:	439c                	lw	a5,0(a5)
    80002042:	8736                	mv	a4,a3
    80002044:	8fb9                	xor	a5,a5,a4
    80002046:	0007869b          	sext.w	a3,a5
    8000204a:	fe842783          	lw	a5,-24(s0)
    8000204e:	0ff7f793          	andi	a5,a5,255
    80002052:	2781                	sext.w	a5,a5
    80002054:	00005717          	auipc	a4,0x5
    80002058:	f9470713          	addi	a4,a4,-108 # 80006fe8 <Te3>
    8000205c:	1782                	slli	a5,a5,0x20
    8000205e:	9381                	srli	a5,a5,0x20
    80002060:	078a                	slli	a5,a5,0x2
    80002062:	97ba                	add	a5,a5,a4
    80002064:	439c                	lw	a5,0(a5)
    80002066:	8736                	mv	a4,a3
    80002068:	8fb9                	xor	a5,a5,a4
    8000206a:	0007871b          	sext.w	a4,a5
    8000206e:	fc843783          	ld	a5,-56(s0)
    80002072:	5fbc                	lw	a5,120(a5)
    80002074:	8fb9                	xor	a5,a5,a4
    80002076:	fcf42a23          	sw	a5,-44(s0)
    8000207a:	fe042783          	lw	a5,-32(s0)
    8000207e:	0187d79b          	srliw	a5,a5,0x18
    80002082:	2781                	sext.w	a5,a5
    80002084:	00004717          	auipc	a4,0x4
    80002088:	36470713          	addi	a4,a4,868 # 800063e8 <Te0>
    8000208c:	1782                	slli	a5,a5,0x20
    8000208e:	9381                	srli	a5,a5,0x20
    80002090:	078a                	slli	a5,a5,0x2
    80002092:	97ba                	add	a5,a5,a4
    80002094:	4394                	lw	a3,0(a5)
    80002096:	fec42783          	lw	a5,-20(s0)
    8000209a:	0107d79b          	srliw	a5,a5,0x10
    8000209e:	2781                	sext.w	a5,a5
    800020a0:	0ff7f793          	andi	a5,a5,255
    800020a4:	2781                	sext.w	a5,a5
    800020a6:	00004717          	auipc	a4,0x4
    800020aa:	74270713          	addi	a4,a4,1858 # 800067e8 <Te1>
    800020ae:	1782                	slli	a5,a5,0x20
    800020b0:	9381                	srli	a5,a5,0x20
    800020b2:	078a                	slli	a5,a5,0x2
    800020b4:	97ba                	add	a5,a5,a4
    800020b6:	439c                	lw	a5,0(a5)
    800020b8:	8736                	mv	a4,a3
    800020ba:	8fb9                	xor	a5,a5,a4
    800020bc:	0007869b          	sext.w	a3,a5
    800020c0:	fe842783          	lw	a5,-24(s0)
    800020c4:	0087d79b          	srliw	a5,a5,0x8
    800020c8:	2781                	sext.w	a5,a5
    800020ca:	0ff7f793          	andi	a5,a5,255
    800020ce:	2781                	sext.w	a5,a5
    800020d0:	00005717          	auipc	a4,0x5
    800020d4:	b1870713          	addi	a4,a4,-1256 # 80006be8 <Te2>
    800020d8:	1782                	slli	a5,a5,0x20
    800020da:	9381                	srli	a5,a5,0x20
    800020dc:	078a                	slli	a5,a5,0x2
    800020de:	97ba                	add	a5,a5,a4
    800020e0:	439c                	lw	a5,0(a5)
    800020e2:	8736                	mv	a4,a3
    800020e4:	8fb9                	xor	a5,a5,a4
    800020e6:	0007869b          	sext.w	a3,a5
    800020ea:	fe442783          	lw	a5,-28(s0)
    800020ee:	0ff7f793          	andi	a5,a5,255
    800020f2:	2781                	sext.w	a5,a5
    800020f4:	00005717          	auipc	a4,0x5
    800020f8:	ef470713          	addi	a4,a4,-268 # 80006fe8 <Te3>
    800020fc:	1782                	slli	a5,a5,0x20
    800020fe:	9381                	srli	a5,a5,0x20
    80002100:	078a                	slli	a5,a5,0x2
    80002102:	97ba                	add	a5,a5,a4
    80002104:	439c                	lw	a5,0(a5)
    80002106:	8736                	mv	a4,a3
    80002108:	8fb9                	xor	a5,a5,a4
    8000210a:	0007871b          	sext.w	a4,a5
    8000210e:	fc843783          	ld	a5,-56(s0)
    80002112:	5ffc                	lw	a5,124(a5)
    80002114:	8fb9                	xor	a5,a5,a4
    80002116:	fcf42823          	sw	a5,-48(s0)
    8000211a:	fdc42783          	lw	a5,-36(s0)
    8000211e:	0187d79b          	srliw	a5,a5,0x18
    80002122:	2781                	sext.w	a5,a5
    80002124:	00004717          	auipc	a4,0x4
    80002128:	2c470713          	addi	a4,a4,708 # 800063e8 <Te0>
    8000212c:	1782                	slli	a5,a5,0x20
    8000212e:	9381                	srli	a5,a5,0x20
    80002130:	078a                	slli	a5,a5,0x2
    80002132:	97ba                	add	a5,a5,a4
    80002134:	4394                	lw	a3,0(a5)
    80002136:	fd842783          	lw	a5,-40(s0)
    8000213a:	0107d79b          	srliw	a5,a5,0x10
    8000213e:	2781                	sext.w	a5,a5
    80002140:	0ff7f793          	andi	a5,a5,255
    80002144:	2781                	sext.w	a5,a5
    80002146:	00004717          	auipc	a4,0x4
    8000214a:	6a270713          	addi	a4,a4,1698 # 800067e8 <Te1>
    8000214e:	1782                	slli	a5,a5,0x20
    80002150:	9381                	srli	a5,a5,0x20
    80002152:	078a                	slli	a5,a5,0x2
    80002154:	97ba                	add	a5,a5,a4
    80002156:	439c                	lw	a5,0(a5)
    80002158:	8736                	mv	a4,a3
    8000215a:	8fb9                	xor	a5,a5,a4
    8000215c:	0007869b          	sext.w	a3,a5
    80002160:	fd442783          	lw	a5,-44(s0)
    80002164:	0087d79b          	srliw	a5,a5,0x8
    80002168:	2781                	sext.w	a5,a5
    8000216a:	0ff7f793          	andi	a5,a5,255
    8000216e:	2781                	sext.w	a5,a5
    80002170:	00005717          	auipc	a4,0x5
    80002174:	a7870713          	addi	a4,a4,-1416 # 80006be8 <Te2>
    80002178:	1782                	slli	a5,a5,0x20
    8000217a:	9381                	srli	a5,a5,0x20
    8000217c:	078a                	slli	a5,a5,0x2
    8000217e:	97ba                	add	a5,a5,a4
    80002180:	439c                	lw	a5,0(a5)
    80002182:	8736                	mv	a4,a3
    80002184:	8fb9                	xor	a5,a5,a4
    80002186:	0007869b          	sext.w	a3,a5
    8000218a:	fd042783          	lw	a5,-48(s0)
    8000218e:	0ff7f793          	andi	a5,a5,255
    80002192:	2781                	sext.w	a5,a5
    80002194:	00005717          	auipc	a4,0x5
    80002198:	e5470713          	addi	a4,a4,-428 # 80006fe8 <Te3>
    8000219c:	1782                	slli	a5,a5,0x20
    8000219e:	9381                	srli	a5,a5,0x20
    800021a0:	078a                	slli	a5,a5,0x2
    800021a2:	97ba                	add	a5,a5,a4
    800021a4:	439c                	lw	a5,0(a5)
    800021a6:	8736                	mv	a4,a3
    800021a8:	8fb9                	xor	a5,a5,a4
    800021aa:	0007871b          	sext.w	a4,a5
    800021ae:	fc843783          	ld	a5,-56(s0)
    800021b2:	0807a783          	lw	a5,128(a5)
    800021b6:	8fb9                	xor	a5,a5,a4
    800021b8:	fef42623          	sw	a5,-20(s0)
    800021bc:	fd842783          	lw	a5,-40(s0)
    800021c0:	0187d79b          	srliw	a5,a5,0x18
    800021c4:	2781                	sext.w	a5,a5
    800021c6:	00004717          	auipc	a4,0x4
    800021ca:	22270713          	addi	a4,a4,546 # 800063e8 <Te0>
    800021ce:	1782                	slli	a5,a5,0x20
    800021d0:	9381                	srli	a5,a5,0x20
    800021d2:	078a                	slli	a5,a5,0x2
    800021d4:	97ba                	add	a5,a5,a4
    800021d6:	4394                	lw	a3,0(a5)
    800021d8:	fd442783          	lw	a5,-44(s0)
    800021dc:	0107d79b          	srliw	a5,a5,0x10
    800021e0:	2781                	sext.w	a5,a5
    800021e2:	0ff7f793          	andi	a5,a5,255
    800021e6:	2781                	sext.w	a5,a5
    800021e8:	00004717          	auipc	a4,0x4
    800021ec:	60070713          	addi	a4,a4,1536 # 800067e8 <Te1>
    800021f0:	1782                	slli	a5,a5,0x20
    800021f2:	9381                	srli	a5,a5,0x20
    800021f4:	078a                	slli	a5,a5,0x2
    800021f6:	97ba                	add	a5,a5,a4
    800021f8:	439c                	lw	a5,0(a5)
    800021fa:	8736                	mv	a4,a3
    800021fc:	8fb9                	xor	a5,a5,a4
    800021fe:	0007869b          	sext.w	a3,a5
    80002202:	fd042783          	lw	a5,-48(s0)
    80002206:	0087d79b          	srliw	a5,a5,0x8
    8000220a:	2781                	sext.w	a5,a5
    8000220c:	0ff7f793          	andi	a5,a5,255
    80002210:	2781                	sext.w	a5,a5
    80002212:	00005717          	auipc	a4,0x5
    80002216:	9d670713          	addi	a4,a4,-1578 # 80006be8 <Te2>
    8000221a:	1782                	slli	a5,a5,0x20
    8000221c:	9381                	srli	a5,a5,0x20
    8000221e:	078a                	slli	a5,a5,0x2
    80002220:	97ba                	add	a5,a5,a4
    80002222:	439c                	lw	a5,0(a5)
    80002224:	8736                	mv	a4,a3
    80002226:	8fb9                	xor	a5,a5,a4
    80002228:	0007869b          	sext.w	a3,a5
    8000222c:	fdc42783          	lw	a5,-36(s0)
    80002230:	0ff7f793          	andi	a5,a5,255
    80002234:	2781                	sext.w	a5,a5
    80002236:	00005717          	auipc	a4,0x5
    8000223a:	db270713          	addi	a4,a4,-590 # 80006fe8 <Te3>
    8000223e:	1782                	slli	a5,a5,0x20
    80002240:	9381                	srli	a5,a5,0x20
    80002242:	078a                	slli	a5,a5,0x2
    80002244:	97ba                	add	a5,a5,a4
    80002246:	439c                	lw	a5,0(a5)
    80002248:	8736                	mv	a4,a3
    8000224a:	8fb9                	xor	a5,a5,a4
    8000224c:	0007871b          	sext.w	a4,a5
    80002250:	fc843783          	ld	a5,-56(s0)
    80002254:	0847a783          	lw	a5,132(a5)
    80002258:	8fb9                	xor	a5,a5,a4
    8000225a:	fef42423          	sw	a5,-24(s0)
    8000225e:	fd442783          	lw	a5,-44(s0)
    80002262:	0187d79b          	srliw	a5,a5,0x18
    80002266:	2781                	sext.w	a5,a5
    80002268:	00004717          	auipc	a4,0x4
    8000226c:	18070713          	addi	a4,a4,384 # 800063e8 <Te0>
    80002270:	1782                	slli	a5,a5,0x20
    80002272:	9381                	srli	a5,a5,0x20
    80002274:	078a                	slli	a5,a5,0x2
    80002276:	97ba                	add	a5,a5,a4
    80002278:	4394                	lw	a3,0(a5)
    8000227a:	fd042783          	lw	a5,-48(s0)
    8000227e:	0107d79b          	srliw	a5,a5,0x10
    80002282:	2781                	sext.w	a5,a5
    80002284:	0ff7f793          	andi	a5,a5,255
    80002288:	2781                	sext.w	a5,a5
    8000228a:	00004717          	auipc	a4,0x4
    8000228e:	55e70713          	addi	a4,a4,1374 # 800067e8 <Te1>
    80002292:	1782                	slli	a5,a5,0x20
    80002294:	9381                	srli	a5,a5,0x20
    80002296:	078a                	slli	a5,a5,0x2
    80002298:	97ba                	add	a5,a5,a4
    8000229a:	439c                	lw	a5,0(a5)
    8000229c:	8736                	mv	a4,a3
    8000229e:	8fb9                	xor	a5,a5,a4
    800022a0:	0007869b          	sext.w	a3,a5
    800022a4:	fdc42783          	lw	a5,-36(s0)
    800022a8:	0087d79b          	srliw	a5,a5,0x8
    800022ac:	2781                	sext.w	a5,a5
    800022ae:	0ff7f793          	andi	a5,a5,255
    800022b2:	2781                	sext.w	a5,a5
    800022b4:	00005717          	auipc	a4,0x5
    800022b8:	93470713          	addi	a4,a4,-1740 # 80006be8 <Te2>
    800022bc:	1782                	slli	a5,a5,0x20
    800022be:	9381                	srli	a5,a5,0x20
    800022c0:	078a                	slli	a5,a5,0x2
    800022c2:	97ba                	add	a5,a5,a4
    800022c4:	439c                	lw	a5,0(a5)
    800022c6:	8736                	mv	a4,a3
    800022c8:	8fb9                	xor	a5,a5,a4
    800022ca:	0007869b          	sext.w	a3,a5
    800022ce:	fd842783          	lw	a5,-40(s0)
    800022d2:	0ff7f793          	andi	a5,a5,255
    800022d6:	2781                	sext.w	a5,a5
    800022d8:	00005717          	auipc	a4,0x5
    800022dc:	d1070713          	addi	a4,a4,-752 # 80006fe8 <Te3>
    800022e0:	1782                	slli	a5,a5,0x20
    800022e2:	9381                	srli	a5,a5,0x20
    800022e4:	078a                	slli	a5,a5,0x2
    800022e6:	97ba                	add	a5,a5,a4
    800022e8:	439c                	lw	a5,0(a5)
    800022ea:	8736                	mv	a4,a3
    800022ec:	8fb9                	xor	a5,a5,a4
    800022ee:	0007871b          	sext.w	a4,a5
    800022f2:	fc843783          	ld	a5,-56(s0)
    800022f6:	0887a783          	lw	a5,136(a5)
    800022fa:	8fb9                	xor	a5,a5,a4
    800022fc:	fef42223          	sw	a5,-28(s0)
    80002300:	fd042783          	lw	a5,-48(s0)
    80002304:	0187d79b          	srliw	a5,a5,0x18
    80002308:	2781                	sext.w	a5,a5
    8000230a:	00004717          	auipc	a4,0x4
    8000230e:	0de70713          	addi	a4,a4,222 # 800063e8 <Te0>
    80002312:	1782                	slli	a5,a5,0x20
    80002314:	9381                	srli	a5,a5,0x20
    80002316:	078a                	slli	a5,a5,0x2
    80002318:	97ba                	add	a5,a5,a4
    8000231a:	4394                	lw	a3,0(a5)
    8000231c:	fdc42783          	lw	a5,-36(s0)
    80002320:	0107d79b          	srliw	a5,a5,0x10
    80002324:	2781                	sext.w	a5,a5
    80002326:	0ff7f793          	andi	a5,a5,255
    8000232a:	2781                	sext.w	a5,a5
    8000232c:	00004717          	auipc	a4,0x4
    80002330:	4bc70713          	addi	a4,a4,1212 # 800067e8 <Te1>
    80002334:	1782                	slli	a5,a5,0x20
    80002336:	9381                	srli	a5,a5,0x20
    80002338:	078a                	slli	a5,a5,0x2
    8000233a:	97ba                	add	a5,a5,a4
    8000233c:	439c                	lw	a5,0(a5)
    8000233e:	8736                	mv	a4,a3
    80002340:	8fb9                	xor	a5,a5,a4
    80002342:	0007869b          	sext.w	a3,a5
    80002346:	fd842783          	lw	a5,-40(s0)
    8000234a:	0087d79b          	srliw	a5,a5,0x8
    8000234e:	2781                	sext.w	a5,a5
    80002350:	0ff7f793          	andi	a5,a5,255
    80002354:	2781                	sext.w	a5,a5
    80002356:	00005717          	auipc	a4,0x5
    8000235a:	89270713          	addi	a4,a4,-1902 # 80006be8 <Te2>
    8000235e:	1782                	slli	a5,a5,0x20
    80002360:	9381                	srli	a5,a5,0x20
    80002362:	078a                	slli	a5,a5,0x2
    80002364:	97ba                	add	a5,a5,a4
    80002366:	439c                	lw	a5,0(a5)
    80002368:	8736                	mv	a4,a3
    8000236a:	8fb9                	xor	a5,a5,a4
    8000236c:	0007869b          	sext.w	a3,a5
    80002370:	fd442783          	lw	a5,-44(s0)
    80002374:	0ff7f793          	andi	a5,a5,255
    80002378:	2781                	sext.w	a5,a5
    8000237a:	00005717          	auipc	a4,0x5
    8000237e:	c6e70713          	addi	a4,a4,-914 # 80006fe8 <Te3>
    80002382:	1782                	slli	a5,a5,0x20
    80002384:	9381                	srli	a5,a5,0x20
    80002386:	078a                	slli	a5,a5,0x2
    80002388:	97ba                	add	a5,a5,a4
    8000238a:	439c                	lw	a5,0(a5)
    8000238c:	8736                	mv	a4,a3
    8000238e:	8fb9                	xor	a5,a5,a4
    80002390:	0007871b          	sext.w	a4,a5
    80002394:	fc843783          	ld	a5,-56(s0)
    80002398:	08c7a783          	lw	a5,140(a5)
    8000239c:	8fb9                	xor	a5,a5,a4
    8000239e:	fef42023          	sw	a5,-32(s0)
    800023a2:	fec42783          	lw	a5,-20(s0)
    800023a6:	0187d79b          	srliw	a5,a5,0x18
    800023aa:	2781                	sext.w	a5,a5
    800023ac:	00004717          	auipc	a4,0x4
    800023b0:	03c70713          	addi	a4,a4,60 # 800063e8 <Te0>
    800023b4:	1782                	slli	a5,a5,0x20
    800023b6:	9381                	srli	a5,a5,0x20
    800023b8:	078a                	slli	a5,a5,0x2
    800023ba:	97ba                	add	a5,a5,a4
    800023bc:	4394                	lw	a3,0(a5)
    800023be:	fe842783          	lw	a5,-24(s0)
    800023c2:	0107d79b          	srliw	a5,a5,0x10
    800023c6:	2781                	sext.w	a5,a5
    800023c8:	0ff7f793          	andi	a5,a5,255
    800023cc:	2781                	sext.w	a5,a5
    800023ce:	00004717          	auipc	a4,0x4
    800023d2:	41a70713          	addi	a4,a4,1050 # 800067e8 <Te1>
    800023d6:	1782                	slli	a5,a5,0x20
    800023d8:	9381                	srli	a5,a5,0x20
    800023da:	078a                	slli	a5,a5,0x2
    800023dc:	97ba                	add	a5,a5,a4
    800023de:	439c                	lw	a5,0(a5)
    800023e0:	8736                	mv	a4,a3
    800023e2:	8fb9                	xor	a5,a5,a4
    800023e4:	0007869b          	sext.w	a3,a5
    800023e8:	fe442783          	lw	a5,-28(s0)
    800023ec:	0087d79b          	srliw	a5,a5,0x8
    800023f0:	2781                	sext.w	a5,a5
    800023f2:	0ff7f793          	andi	a5,a5,255
    800023f6:	2781                	sext.w	a5,a5
    800023f8:	00004717          	auipc	a4,0x4
    800023fc:	7f070713          	addi	a4,a4,2032 # 80006be8 <Te2>
    80002400:	1782                	slli	a5,a5,0x20
    80002402:	9381                	srli	a5,a5,0x20
    80002404:	078a                	slli	a5,a5,0x2
    80002406:	97ba                	add	a5,a5,a4
    80002408:	439c                	lw	a5,0(a5)
    8000240a:	8736                	mv	a4,a3
    8000240c:	8fb9                	xor	a5,a5,a4
    8000240e:	0007869b          	sext.w	a3,a5
    80002412:	fe042783          	lw	a5,-32(s0)
    80002416:	0ff7f793          	andi	a5,a5,255
    8000241a:	2781                	sext.w	a5,a5
    8000241c:	00005717          	auipc	a4,0x5
    80002420:	bcc70713          	addi	a4,a4,-1076 # 80006fe8 <Te3>
    80002424:	1782                	slli	a5,a5,0x20
    80002426:	9381                	srli	a5,a5,0x20
    80002428:	078a                	slli	a5,a5,0x2
    8000242a:	97ba                	add	a5,a5,a4
    8000242c:	439c                	lw	a5,0(a5)
    8000242e:	8736                	mv	a4,a3
    80002430:	8fb9                	xor	a5,a5,a4
    80002432:	0007871b          	sext.w	a4,a5
    80002436:	fc843783          	ld	a5,-56(s0)
    8000243a:	0907a783          	lw	a5,144(a5)
    8000243e:	8fb9                	xor	a5,a5,a4
    80002440:	fcf42e23          	sw	a5,-36(s0)
    80002444:	fe842783          	lw	a5,-24(s0)
    80002448:	0187d79b          	srliw	a5,a5,0x18
    8000244c:	2781                	sext.w	a5,a5
    8000244e:	00004717          	auipc	a4,0x4
    80002452:	f9a70713          	addi	a4,a4,-102 # 800063e8 <Te0>
    80002456:	1782                	slli	a5,a5,0x20
    80002458:	9381                	srli	a5,a5,0x20
    8000245a:	078a                	slli	a5,a5,0x2
    8000245c:	97ba                	add	a5,a5,a4
    8000245e:	4394                	lw	a3,0(a5)
    80002460:	fe442783          	lw	a5,-28(s0)
    80002464:	0107d79b          	srliw	a5,a5,0x10
    80002468:	2781                	sext.w	a5,a5
    8000246a:	0ff7f793          	andi	a5,a5,255
    8000246e:	2781                	sext.w	a5,a5
    80002470:	00004717          	auipc	a4,0x4
    80002474:	37870713          	addi	a4,a4,888 # 800067e8 <Te1>
    80002478:	1782                	slli	a5,a5,0x20
    8000247a:	9381                	srli	a5,a5,0x20
    8000247c:	078a                	slli	a5,a5,0x2
    8000247e:	97ba                	add	a5,a5,a4
    80002480:	439c                	lw	a5,0(a5)
    80002482:	8736                	mv	a4,a3
    80002484:	8fb9                	xor	a5,a5,a4
    80002486:	0007869b          	sext.w	a3,a5
    8000248a:	fe042783          	lw	a5,-32(s0)
    8000248e:	0087d79b          	srliw	a5,a5,0x8
    80002492:	2781                	sext.w	a5,a5
    80002494:	0ff7f793          	andi	a5,a5,255
    80002498:	2781                	sext.w	a5,a5
    8000249a:	00004717          	auipc	a4,0x4
    8000249e:	74e70713          	addi	a4,a4,1870 # 80006be8 <Te2>
    800024a2:	1782                	slli	a5,a5,0x20
    800024a4:	9381                	srli	a5,a5,0x20
    800024a6:	078a                	slli	a5,a5,0x2
    800024a8:	97ba                	add	a5,a5,a4
    800024aa:	439c                	lw	a5,0(a5)
    800024ac:	8736                	mv	a4,a3
    800024ae:	8fb9                	xor	a5,a5,a4
    800024b0:	0007869b          	sext.w	a3,a5
    800024b4:	fec42783          	lw	a5,-20(s0)
    800024b8:	0ff7f793          	andi	a5,a5,255
    800024bc:	2781                	sext.w	a5,a5
    800024be:	00005717          	auipc	a4,0x5
    800024c2:	b2a70713          	addi	a4,a4,-1238 # 80006fe8 <Te3>
    800024c6:	1782                	slli	a5,a5,0x20
    800024c8:	9381                	srli	a5,a5,0x20
    800024ca:	078a                	slli	a5,a5,0x2
    800024cc:	97ba                	add	a5,a5,a4
    800024ce:	439c                	lw	a5,0(a5)
    800024d0:	8736                	mv	a4,a3
    800024d2:	8fb9                	xor	a5,a5,a4
    800024d4:	0007871b          	sext.w	a4,a5
    800024d8:	fc843783          	ld	a5,-56(s0)
    800024dc:	0947a783          	lw	a5,148(a5)
    800024e0:	8fb9                	xor	a5,a5,a4
    800024e2:	fcf42c23          	sw	a5,-40(s0)
    800024e6:	fe442783          	lw	a5,-28(s0)
    800024ea:	0187d79b          	srliw	a5,a5,0x18
    800024ee:	2781                	sext.w	a5,a5
    800024f0:	00004717          	auipc	a4,0x4
    800024f4:	ef870713          	addi	a4,a4,-264 # 800063e8 <Te0>
    800024f8:	1782                	slli	a5,a5,0x20
    800024fa:	9381                	srli	a5,a5,0x20
    800024fc:	078a                	slli	a5,a5,0x2
    800024fe:	97ba                	add	a5,a5,a4
    80002500:	4394                	lw	a3,0(a5)
    80002502:	fe042783          	lw	a5,-32(s0)
    80002506:	0107d79b          	srliw	a5,a5,0x10
    8000250a:	2781                	sext.w	a5,a5
    8000250c:	0ff7f793          	andi	a5,a5,255
    80002510:	2781                	sext.w	a5,a5
    80002512:	00004717          	auipc	a4,0x4
    80002516:	2d670713          	addi	a4,a4,726 # 800067e8 <Te1>
    8000251a:	1782                	slli	a5,a5,0x20
    8000251c:	9381                	srli	a5,a5,0x20
    8000251e:	078a                	slli	a5,a5,0x2
    80002520:	97ba                	add	a5,a5,a4
    80002522:	439c                	lw	a5,0(a5)
    80002524:	8736                	mv	a4,a3
    80002526:	8fb9                	xor	a5,a5,a4
    80002528:	0007869b          	sext.w	a3,a5
    8000252c:	fec42783          	lw	a5,-20(s0)
    80002530:	0087d79b          	srliw	a5,a5,0x8
    80002534:	2781                	sext.w	a5,a5
    80002536:	0ff7f793          	andi	a5,a5,255
    8000253a:	2781                	sext.w	a5,a5
    8000253c:	00004717          	auipc	a4,0x4
    80002540:	6ac70713          	addi	a4,a4,1708 # 80006be8 <Te2>
    80002544:	1782                	slli	a5,a5,0x20
    80002546:	9381                	srli	a5,a5,0x20
    80002548:	078a                	slli	a5,a5,0x2
    8000254a:	97ba                	add	a5,a5,a4
    8000254c:	439c                	lw	a5,0(a5)
    8000254e:	8736                	mv	a4,a3
    80002550:	8fb9                	xor	a5,a5,a4
    80002552:	0007869b          	sext.w	a3,a5
    80002556:	fe842783          	lw	a5,-24(s0)
    8000255a:	0ff7f793          	andi	a5,a5,255
    8000255e:	2781                	sext.w	a5,a5
    80002560:	00005717          	auipc	a4,0x5
    80002564:	a8870713          	addi	a4,a4,-1400 # 80006fe8 <Te3>
    80002568:	1782                	slli	a5,a5,0x20
    8000256a:	9381                	srli	a5,a5,0x20
    8000256c:	078a                	slli	a5,a5,0x2
    8000256e:	97ba                	add	a5,a5,a4
    80002570:	439c                	lw	a5,0(a5)
    80002572:	8736                	mv	a4,a3
    80002574:	8fb9                	xor	a5,a5,a4
    80002576:	0007871b          	sext.w	a4,a5
    8000257a:	fc843783          	ld	a5,-56(s0)
    8000257e:	0987a783          	lw	a5,152(a5)
    80002582:	8fb9                	xor	a5,a5,a4
    80002584:	fcf42a23          	sw	a5,-44(s0)
    80002588:	fe042783          	lw	a5,-32(s0)
    8000258c:	0187d79b          	srliw	a5,a5,0x18
    80002590:	2781                	sext.w	a5,a5
    80002592:	00004717          	auipc	a4,0x4
    80002596:	e5670713          	addi	a4,a4,-426 # 800063e8 <Te0>
    8000259a:	1782                	slli	a5,a5,0x20
    8000259c:	9381                	srli	a5,a5,0x20
    8000259e:	078a                	slli	a5,a5,0x2
    800025a0:	97ba                	add	a5,a5,a4
    800025a2:	4394                	lw	a3,0(a5)
    800025a4:	fec42783          	lw	a5,-20(s0)
    800025a8:	0107d79b          	srliw	a5,a5,0x10
    800025ac:	2781                	sext.w	a5,a5
    800025ae:	0ff7f793          	andi	a5,a5,255
    800025b2:	2781                	sext.w	a5,a5
    800025b4:	00004717          	auipc	a4,0x4
    800025b8:	23470713          	addi	a4,a4,564 # 800067e8 <Te1>
    800025bc:	1782                	slli	a5,a5,0x20
    800025be:	9381                	srli	a5,a5,0x20
    800025c0:	078a                	slli	a5,a5,0x2
    800025c2:	97ba                	add	a5,a5,a4
    800025c4:	439c                	lw	a5,0(a5)
    800025c6:	8736                	mv	a4,a3
    800025c8:	8fb9                	xor	a5,a5,a4
    800025ca:	0007869b          	sext.w	a3,a5
    800025ce:	fe842783          	lw	a5,-24(s0)
    800025d2:	0087d79b          	srliw	a5,a5,0x8
    800025d6:	2781                	sext.w	a5,a5
    800025d8:	0ff7f793          	andi	a5,a5,255
    800025dc:	2781                	sext.w	a5,a5
    800025de:	00004717          	auipc	a4,0x4
    800025e2:	60a70713          	addi	a4,a4,1546 # 80006be8 <Te2>
    800025e6:	1782                	slli	a5,a5,0x20
    800025e8:	9381                	srli	a5,a5,0x20
    800025ea:	078a                	slli	a5,a5,0x2
    800025ec:	97ba                	add	a5,a5,a4
    800025ee:	439c                	lw	a5,0(a5)
    800025f0:	8736                	mv	a4,a3
    800025f2:	8fb9                	xor	a5,a5,a4
    800025f4:	0007869b          	sext.w	a3,a5
    800025f8:	fe442783          	lw	a5,-28(s0)
    800025fc:	0ff7f793          	andi	a5,a5,255
    80002600:	2781                	sext.w	a5,a5
    80002602:	00005717          	auipc	a4,0x5
    80002606:	9e670713          	addi	a4,a4,-1562 # 80006fe8 <Te3>
    8000260a:	1782                	slli	a5,a5,0x20
    8000260c:	9381                	srli	a5,a5,0x20
    8000260e:	078a                	slli	a5,a5,0x2
    80002610:	97ba                	add	a5,a5,a4
    80002612:	439c                	lw	a5,0(a5)
    80002614:	8736                	mv	a4,a3
    80002616:	8fb9                	xor	a5,a5,a4
    80002618:	0007871b          	sext.w	a4,a5
    8000261c:	fc843783          	ld	a5,-56(s0)
    80002620:	09c7a783          	lw	a5,156(a5)
    80002624:	8fb9                	xor	a5,a5,a4
    80002626:	fcf42823          	sw	a5,-48(s0)
    8000262a:	fdc42783          	lw	a5,-36(s0)
    8000262e:	0187d79b          	srliw	a5,a5,0x18
    80002632:	2781                	sext.w	a5,a5
    80002634:	00005717          	auipc	a4,0x5
    80002638:	db470713          	addi	a4,a4,-588 # 800073e8 <Te4>
    8000263c:	1782                	slli	a5,a5,0x20
    8000263e:	9381                	srli	a5,a5,0x20
    80002640:	078a                	slli	a5,a5,0x2
    80002642:	97ba                	add	a5,a5,a4
    80002644:	439c                	lw	a5,0(a5)
    80002646:	873e                	mv	a4,a5
    80002648:	ff0007b7          	lui	a5,0xff000
    8000264c:	8ff9                	and	a5,a5,a4
    8000264e:	0007869b          	sext.w	a3,a5
    80002652:	fd842783          	lw	a5,-40(s0)
    80002656:	0107d79b          	srliw	a5,a5,0x10
    8000265a:	2781                	sext.w	a5,a5
    8000265c:	0ff7f793          	andi	a5,a5,255
    80002660:	2781                	sext.w	a5,a5
    80002662:	00005717          	auipc	a4,0x5
    80002666:	d8670713          	addi	a4,a4,-634 # 800073e8 <Te4>
    8000266a:	1782                	slli	a5,a5,0x20
    8000266c:	9381                	srli	a5,a5,0x20
    8000266e:	078a                	slli	a5,a5,0x2
    80002670:	97ba                	add	a5,a5,a4
    80002672:	439c                	lw	a5,0(a5)
    80002674:	873e                	mv	a4,a5
    80002676:	00ff07b7          	lui	a5,0xff0
    8000267a:	8ff9                	and	a5,a5,a4
    8000267c:	2781                	sext.w	a5,a5
    8000267e:	8736                	mv	a4,a3
    80002680:	8fd9                	or	a5,a5,a4
    80002682:	0007869b          	sext.w	a3,a5
    80002686:	fd442783          	lw	a5,-44(s0)
    8000268a:	0087d79b          	srliw	a5,a5,0x8
    8000268e:	2781                	sext.w	a5,a5
    80002690:	0ff7f793          	andi	a5,a5,255
    80002694:	2781                	sext.w	a5,a5
    80002696:	00005717          	auipc	a4,0x5
    8000269a:	d5270713          	addi	a4,a4,-686 # 800073e8 <Te4>
    8000269e:	1782                	slli	a5,a5,0x20
    800026a0:	9381                	srli	a5,a5,0x20
    800026a2:	078a                	slli	a5,a5,0x2
    800026a4:	97ba                	add	a5,a5,a4
    800026a6:	439c                	lw	a5,0(a5)
    800026a8:	873e                	mv	a4,a5
    800026aa:	67c1                	lui	a5,0x10
    800026ac:	f0078793          	addi	a5,a5,-256 # ff00 <buflen.2+0xfe80>
    800026b0:	8ff9                	and	a5,a5,a4
    800026b2:	2781                	sext.w	a5,a5
    800026b4:	8736                	mv	a4,a3
    800026b6:	8fb9                	xor	a5,a5,a4
    800026b8:	0007869b          	sext.w	a3,a5
    800026bc:	fd042783          	lw	a5,-48(s0)
    800026c0:	0ff7f793          	andi	a5,a5,255
    800026c4:	2781                	sext.w	a5,a5
    800026c6:	00005717          	auipc	a4,0x5
    800026ca:	d2270713          	addi	a4,a4,-734 # 800073e8 <Te4>
    800026ce:	1782                	slli	a5,a5,0x20
    800026d0:	9381                	srli	a5,a5,0x20
    800026d2:	078a                	slli	a5,a5,0x2
    800026d4:	97ba                	add	a5,a5,a4
    800026d6:	439c                	lw	a5,0(a5)
    800026d8:	0ff7f793          	andi	a5,a5,255
    800026dc:	2781                	sext.w	a5,a5
    800026de:	8736                	mv	a4,a3
    800026e0:	8fb9                	xor	a5,a5,a4
    800026e2:	0007871b          	sext.w	a4,a5
    800026e6:	fc843783          	ld	a5,-56(s0)
    800026ea:	0a07a783          	lw	a5,160(a5)
    800026ee:	8fb9                	xor	a5,a5,a4
    800026f0:	fef42623          	sw	a5,-20(s0)
    800026f4:	fd842783          	lw	a5,-40(s0)
    800026f8:	0187d79b          	srliw	a5,a5,0x18
    800026fc:	2781                	sext.w	a5,a5
    800026fe:	00005717          	auipc	a4,0x5
    80002702:	cea70713          	addi	a4,a4,-790 # 800073e8 <Te4>
    80002706:	1782                	slli	a5,a5,0x20
    80002708:	9381                	srli	a5,a5,0x20
    8000270a:	078a                	slli	a5,a5,0x2
    8000270c:	97ba                	add	a5,a5,a4
    8000270e:	439c                	lw	a5,0(a5)
    80002710:	873e                	mv	a4,a5
    80002712:	ff0007b7          	lui	a5,0xff000
    80002716:	8ff9                	and	a5,a5,a4
    80002718:	0007869b          	sext.w	a3,a5
    8000271c:	fd442783          	lw	a5,-44(s0)
    80002720:	0107d79b          	srliw	a5,a5,0x10
    80002724:	2781                	sext.w	a5,a5
    80002726:	0ff7f793          	andi	a5,a5,255
    8000272a:	2781                	sext.w	a5,a5
    8000272c:	00005717          	auipc	a4,0x5
    80002730:	cbc70713          	addi	a4,a4,-836 # 800073e8 <Te4>
    80002734:	1782                	slli	a5,a5,0x20
    80002736:	9381                	srli	a5,a5,0x20
    80002738:	078a                	slli	a5,a5,0x2
    8000273a:	97ba                	add	a5,a5,a4
    8000273c:	439c                	lw	a5,0(a5)
    8000273e:	873e                	mv	a4,a5
    80002740:	00ff07b7          	lui	a5,0xff0
    80002744:	8ff9                	and	a5,a5,a4
    80002746:	2781                	sext.w	a5,a5
    80002748:	8736                	mv	a4,a3
    8000274a:	8fd9                	or	a5,a5,a4
    8000274c:	0007869b          	sext.w	a3,a5
    80002750:	fd042783          	lw	a5,-48(s0)
    80002754:	0087d79b          	srliw	a5,a5,0x8
    80002758:	2781                	sext.w	a5,a5
    8000275a:	0ff7f793          	andi	a5,a5,255
    8000275e:	2781                	sext.w	a5,a5
    80002760:	00005717          	auipc	a4,0x5
    80002764:	c8870713          	addi	a4,a4,-888 # 800073e8 <Te4>
    80002768:	1782                	slli	a5,a5,0x20
    8000276a:	9381                	srli	a5,a5,0x20
    8000276c:	078a                	slli	a5,a5,0x2
    8000276e:	97ba                	add	a5,a5,a4
    80002770:	439c                	lw	a5,0(a5)
    80002772:	873e                	mv	a4,a5
    80002774:	67c1                	lui	a5,0x10
    80002776:	f0078793          	addi	a5,a5,-256 # ff00 <buflen.2+0xfe80>
    8000277a:	8ff9                	and	a5,a5,a4
    8000277c:	2781                	sext.w	a5,a5
    8000277e:	8736                	mv	a4,a3
    80002780:	8fb9                	xor	a5,a5,a4
    80002782:	0007869b          	sext.w	a3,a5
    80002786:	fdc42783          	lw	a5,-36(s0)
    8000278a:	0ff7f793          	andi	a5,a5,255
    8000278e:	2781                	sext.w	a5,a5
    80002790:	00005717          	auipc	a4,0x5
    80002794:	c5870713          	addi	a4,a4,-936 # 800073e8 <Te4>
    80002798:	1782                	slli	a5,a5,0x20
    8000279a:	9381                	srli	a5,a5,0x20
    8000279c:	078a                	slli	a5,a5,0x2
    8000279e:	97ba                	add	a5,a5,a4
    800027a0:	439c                	lw	a5,0(a5)
    800027a2:	0ff7f793          	andi	a5,a5,255
    800027a6:	2781                	sext.w	a5,a5
    800027a8:	8736                	mv	a4,a3
    800027aa:	8fb9                	xor	a5,a5,a4
    800027ac:	0007871b          	sext.w	a4,a5
    800027b0:	fc843783          	ld	a5,-56(s0)
    800027b4:	0a47a783          	lw	a5,164(a5)
    800027b8:	8fb9                	xor	a5,a5,a4
    800027ba:	fef42423          	sw	a5,-24(s0)
    800027be:	fd442783          	lw	a5,-44(s0)
    800027c2:	0187d79b          	srliw	a5,a5,0x18
    800027c6:	2781                	sext.w	a5,a5
    800027c8:	00005717          	auipc	a4,0x5
    800027cc:	c2070713          	addi	a4,a4,-992 # 800073e8 <Te4>
    800027d0:	1782                	slli	a5,a5,0x20
    800027d2:	9381                	srli	a5,a5,0x20
    800027d4:	078a                	slli	a5,a5,0x2
    800027d6:	97ba                	add	a5,a5,a4
    800027d8:	439c                	lw	a5,0(a5)
    800027da:	873e                	mv	a4,a5
    800027dc:	ff0007b7          	lui	a5,0xff000
    800027e0:	8ff9                	and	a5,a5,a4
    800027e2:	0007869b          	sext.w	a3,a5
    800027e6:	fd042783          	lw	a5,-48(s0)
    800027ea:	0107d79b          	srliw	a5,a5,0x10
    800027ee:	2781                	sext.w	a5,a5
    800027f0:	0ff7f793          	andi	a5,a5,255
    800027f4:	2781                	sext.w	a5,a5
    800027f6:	00005717          	auipc	a4,0x5
    800027fa:	bf270713          	addi	a4,a4,-1038 # 800073e8 <Te4>
    800027fe:	1782                	slli	a5,a5,0x20
    80002800:	9381                	srli	a5,a5,0x20
    80002802:	078a                	slli	a5,a5,0x2
    80002804:	97ba                	add	a5,a5,a4
    80002806:	439c                	lw	a5,0(a5)
    80002808:	873e                	mv	a4,a5
    8000280a:	00ff07b7          	lui	a5,0xff0
    8000280e:	8ff9                	and	a5,a5,a4
    80002810:	2781                	sext.w	a5,a5
    80002812:	8736                	mv	a4,a3
    80002814:	8fd9                	or	a5,a5,a4
    80002816:	0007869b          	sext.w	a3,a5
    8000281a:	fdc42783          	lw	a5,-36(s0)
    8000281e:	0087d79b          	srliw	a5,a5,0x8
    80002822:	2781                	sext.w	a5,a5
    80002824:	0ff7f793          	andi	a5,a5,255
    80002828:	2781                	sext.w	a5,a5
    8000282a:	00005717          	auipc	a4,0x5
    8000282e:	bbe70713          	addi	a4,a4,-1090 # 800073e8 <Te4>
    80002832:	1782                	slli	a5,a5,0x20
    80002834:	9381                	srli	a5,a5,0x20
    80002836:	078a                	slli	a5,a5,0x2
    80002838:	97ba                	add	a5,a5,a4
    8000283a:	439c                	lw	a5,0(a5)
    8000283c:	873e                	mv	a4,a5
    8000283e:	67c1                	lui	a5,0x10
    80002840:	f0078793          	addi	a5,a5,-256 # ff00 <buflen.2+0xfe80>
    80002844:	8ff9                	and	a5,a5,a4
    80002846:	2781                	sext.w	a5,a5
    80002848:	8736                	mv	a4,a3
    8000284a:	8fb9                	xor	a5,a5,a4
    8000284c:	0007869b          	sext.w	a3,a5
    80002850:	fd842783          	lw	a5,-40(s0)
    80002854:	0ff7f793          	andi	a5,a5,255
    80002858:	2781                	sext.w	a5,a5
    8000285a:	00005717          	auipc	a4,0x5
    8000285e:	b8e70713          	addi	a4,a4,-1138 # 800073e8 <Te4>
    80002862:	1782                	slli	a5,a5,0x20
    80002864:	9381                	srli	a5,a5,0x20
    80002866:	078a                	slli	a5,a5,0x2
    80002868:	97ba                	add	a5,a5,a4
    8000286a:	439c                	lw	a5,0(a5)
    8000286c:	0ff7f793          	andi	a5,a5,255
    80002870:	2781                	sext.w	a5,a5
    80002872:	8736                	mv	a4,a3
    80002874:	8fb9                	xor	a5,a5,a4
    80002876:	0007871b          	sext.w	a4,a5
    8000287a:	fc843783          	ld	a5,-56(s0)
    8000287e:	0a87a783          	lw	a5,168(a5)
    80002882:	8fb9                	xor	a5,a5,a4
    80002884:	fef42223          	sw	a5,-28(s0)
    80002888:	fd042783          	lw	a5,-48(s0)
    8000288c:	0187d79b          	srliw	a5,a5,0x18
    80002890:	2781                	sext.w	a5,a5
    80002892:	00005717          	auipc	a4,0x5
    80002896:	b5670713          	addi	a4,a4,-1194 # 800073e8 <Te4>
    8000289a:	1782                	slli	a5,a5,0x20
    8000289c:	9381                	srli	a5,a5,0x20
    8000289e:	078a                	slli	a5,a5,0x2
    800028a0:	97ba                	add	a5,a5,a4
    800028a2:	439c                	lw	a5,0(a5)
    800028a4:	873e                	mv	a4,a5
    800028a6:	ff0007b7          	lui	a5,0xff000
    800028aa:	8ff9                	and	a5,a5,a4
    800028ac:	0007869b          	sext.w	a3,a5
    800028b0:	fdc42783          	lw	a5,-36(s0)
    800028b4:	0107d79b          	srliw	a5,a5,0x10
    800028b8:	2781                	sext.w	a5,a5
    800028ba:	0ff7f793          	andi	a5,a5,255
    800028be:	2781                	sext.w	a5,a5
    800028c0:	00005717          	auipc	a4,0x5
    800028c4:	b2870713          	addi	a4,a4,-1240 # 800073e8 <Te4>
    800028c8:	1782                	slli	a5,a5,0x20
    800028ca:	9381                	srli	a5,a5,0x20
    800028cc:	078a                	slli	a5,a5,0x2
    800028ce:	97ba                	add	a5,a5,a4
    800028d0:	439c                	lw	a5,0(a5)
    800028d2:	873e                	mv	a4,a5
    800028d4:	00ff07b7          	lui	a5,0xff0
    800028d8:	8ff9                	and	a5,a5,a4
    800028da:	2781                	sext.w	a5,a5
    800028dc:	8736                	mv	a4,a3
    800028de:	8fd9                	or	a5,a5,a4
    800028e0:	0007869b          	sext.w	a3,a5
    800028e4:	fd842783          	lw	a5,-40(s0)
    800028e8:	0087d79b          	srliw	a5,a5,0x8
    800028ec:	2781                	sext.w	a5,a5
    800028ee:	0ff7f793          	andi	a5,a5,255
    800028f2:	2781                	sext.w	a5,a5
    800028f4:	00005717          	auipc	a4,0x5
    800028f8:	af470713          	addi	a4,a4,-1292 # 800073e8 <Te4>
    800028fc:	1782                	slli	a5,a5,0x20
    800028fe:	9381                	srli	a5,a5,0x20
    80002900:	078a                	slli	a5,a5,0x2
    80002902:	97ba                	add	a5,a5,a4
    80002904:	439c                	lw	a5,0(a5)
    80002906:	873e                	mv	a4,a5
    80002908:	67c1                	lui	a5,0x10
    8000290a:	f0078793          	addi	a5,a5,-256 # ff00 <buflen.2+0xfe80>
    8000290e:	8ff9                	and	a5,a5,a4
    80002910:	2781                	sext.w	a5,a5
    80002912:	8736                	mv	a4,a3
    80002914:	8fb9                	xor	a5,a5,a4
    80002916:	0007869b          	sext.w	a3,a5
    8000291a:	fd442783          	lw	a5,-44(s0)
    8000291e:	0ff7f793          	andi	a5,a5,255
    80002922:	2781                	sext.w	a5,a5
    80002924:	00005717          	auipc	a4,0x5
    80002928:	ac470713          	addi	a4,a4,-1340 # 800073e8 <Te4>
    8000292c:	1782                	slli	a5,a5,0x20
    8000292e:	9381                	srli	a5,a5,0x20
    80002930:	078a                	slli	a5,a5,0x2
    80002932:	97ba                	add	a5,a5,a4
    80002934:	439c                	lw	a5,0(a5)
    80002936:	0ff7f793          	andi	a5,a5,255
    8000293a:	2781                	sext.w	a5,a5
    8000293c:	8736                	mv	a4,a3
    8000293e:	8fb9                	xor	a5,a5,a4
    80002940:	0007871b          	sext.w	a4,a5
    80002944:	fc843783          	ld	a5,-56(s0)
    80002948:	0ac7a783          	lw	a5,172(a5)
    8000294c:	8fb9                	xor	a5,a5,a4
    8000294e:	fef42023          	sw	a5,-32(s0)
    80002952:	fec42783          	lw	a5,-20(s0)
    80002956:	0187d79b          	srliw	a5,a5,0x18
    8000295a:	2781                	sext.w	a5,a5
    8000295c:	0ff7f713          	andi	a4,a5,255
    80002960:	fb843783          	ld	a5,-72(s0)
    80002964:	00e78023          	sb	a4,0(a5)
    80002968:	fec42783          	lw	a5,-20(s0)
    8000296c:	0107d79b          	srliw	a5,a5,0x10
    80002970:	0007871b          	sext.w	a4,a5
    80002974:	fb843783          	ld	a5,-72(s0)
    80002978:	0785                	addi	a5,a5,1
    8000297a:	0ff77713          	andi	a4,a4,255
    8000297e:	00e78023          	sb	a4,0(a5)
    80002982:	fec42783          	lw	a5,-20(s0)
    80002986:	0087d79b          	srliw	a5,a5,0x8
    8000298a:	0007871b          	sext.w	a4,a5
    8000298e:	fb843783          	ld	a5,-72(s0)
    80002992:	0789                	addi	a5,a5,2
    80002994:	0ff77713          	andi	a4,a4,255
    80002998:	00e78023          	sb	a4,0(a5)
    8000299c:	fb843783          	ld	a5,-72(s0)
    800029a0:	078d                	addi	a5,a5,3
    800029a2:	fec42703          	lw	a4,-20(s0)
    800029a6:	0ff77713          	andi	a4,a4,255
    800029aa:	00e78023          	sb	a4,0(a5)
    800029ae:	fe842783          	lw	a5,-24(s0)
    800029b2:	0187d79b          	srliw	a5,a5,0x18
    800029b6:	0007871b          	sext.w	a4,a5
    800029ba:	fb843783          	ld	a5,-72(s0)
    800029be:	0791                	addi	a5,a5,4
    800029c0:	0ff77713          	andi	a4,a4,255
    800029c4:	00e78023          	sb	a4,0(a5)
    800029c8:	fe842783          	lw	a5,-24(s0)
    800029cc:	0107d79b          	srliw	a5,a5,0x10
    800029d0:	0007871b          	sext.w	a4,a5
    800029d4:	fb843783          	ld	a5,-72(s0)
    800029d8:	0795                	addi	a5,a5,5
    800029da:	0ff77713          	andi	a4,a4,255
    800029de:	00e78023          	sb	a4,0(a5)
    800029e2:	fe842783          	lw	a5,-24(s0)
    800029e6:	0087d79b          	srliw	a5,a5,0x8
    800029ea:	0007871b          	sext.w	a4,a5
    800029ee:	fb843783          	ld	a5,-72(s0)
    800029f2:	0799                	addi	a5,a5,6
    800029f4:	0ff77713          	andi	a4,a4,255
    800029f8:	00e78023          	sb	a4,0(a5)
    800029fc:	fb843783          	ld	a5,-72(s0)
    80002a00:	079d                	addi	a5,a5,7
    80002a02:	fe842703          	lw	a4,-24(s0)
    80002a06:	0ff77713          	andi	a4,a4,255
    80002a0a:	00e78023          	sb	a4,0(a5)
    80002a0e:	fe442783          	lw	a5,-28(s0)
    80002a12:	0187d79b          	srliw	a5,a5,0x18
    80002a16:	0007871b          	sext.w	a4,a5
    80002a1a:	fb843783          	ld	a5,-72(s0)
    80002a1e:	07a1                	addi	a5,a5,8
    80002a20:	0ff77713          	andi	a4,a4,255
    80002a24:	00e78023          	sb	a4,0(a5)
    80002a28:	fe442783          	lw	a5,-28(s0)
    80002a2c:	0107d79b          	srliw	a5,a5,0x10
    80002a30:	0007871b          	sext.w	a4,a5
    80002a34:	fb843783          	ld	a5,-72(s0)
    80002a38:	07a5                	addi	a5,a5,9
    80002a3a:	0ff77713          	andi	a4,a4,255
    80002a3e:	00e78023          	sb	a4,0(a5)
    80002a42:	fe442783          	lw	a5,-28(s0)
    80002a46:	0087d79b          	srliw	a5,a5,0x8
    80002a4a:	0007871b          	sext.w	a4,a5
    80002a4e:	fb843783          	ld	a5,-72(s0)
    80002a52:	07a9                	addi	a5,a5,10
    80002a54:	0ff77713          	andi	a4,a4,255
    80002a58:	00e78023          	sb	a4,0(a5)
    80002a5c:	fb843783          	ld	a5,-72(s0)
    80002a60:	07ad                	addi	a5,a5,11
    80002a62:	fe442703          	lw	a4,-28(s0)
    80002a66:	0ff77713          	andi	a4,a4,255
    80002a6a:	00e78023          	sb	a4,0(a5)
    80002a6e:	fe042783          	lw	a5,-32(s0)
    80002a72:	0187d79b          	srliw	a5,a5,0x18
    80002a76:	0007871b          	sext.w	a4,a5
    80002a7a:	fb843783          	ld	a5,-72(s0)
    80002a7e:	07b1                	addi	a5,a5,12
    80002a80:	0ff77713          	andi	a4,a4,255
    80002a84:	00e78023          	sb	a4,0(a5)
    80002a88:	fe042783          	lw	a5,-32(s0)
    80002a8c:	0107d79b          	srliw	a5,a5,0x10
    80002a90:	0007871b          	sext.w	a4,a5
    80002a94:	fb843783          	ld	a5,-72(s0)
    80002a98:	07b5                	addi	a5,a5,13
    80002a9a:	0ff77713          	andi	a4,a4,255
    80002a9e:	00e78023          	sb	a4,0(a5)
    80002aa2:	fe042783          	lw	a5,-32(s0)
    80002aa6:	0087d79b          	srliw	a5,a5,0x8
    80002aaa:	0007871b          	sext.w	a4,a5
    80002aae:	fb843783          	ld	a5,-72(s0)
    80002ab2:	07b9                	addi	a5,a5,14
    80002ab4:	0ff77713          	andi	a4,a4,255
    80002ab8:	00e78023          	sb	a4,0(a5)
    80002abc:	fb843783          	ld	a5,-72(s0)
    80002ac0:	07bd                	addi	a5,a5,15
    80002ac2:	fe042703          	lw	a4,-32(s0)
    80002ac6:	0ff77713          	andi	a4,a4,255
    80002aca:	00e78023          	sb	a4,0(a5)
    80002ace:	fc843783          	ld	a5,-56(s0)
    80002ad2:	fec42703          	lw	a4,-20(s0)
    80002ad6:	0ae7a823          	sw	a4,176(a5)
    80002ada:	fc843783          	ld	a5,-56(s0)
    80002ade:	fe842703          	lw	a4,-24(s0)
    80002ae2:	0ae7aa23          	sw	a4,180(a5)
    80002ae6:	fc843783          	ld	a5,-56(s0)
    80002aea:	fe442703          	lw	a4,-28(s0)
    80002aee:	0ae7ac23          	sw	a4,184(a5)
    80002af2:	fc843783          	ld	a5,-56(s0)
    80002af6:	fe042703          	lw	a4,-32(s0)
    80002afa:	0ae7ae23          	sw	a4,188(a5)
    80002afe:	0001                	nop
    80002b00:	6426                	ld	s0,72(sp)
    80002b02:	6161                	addi	sp,sp,80
    80002b04:	8082                	ret

0000000080002b06 <AES_Decrypt>:
    80002b06:	711d                	addi	sp,sp,-96
    80002b08:	eca2                	sd	s0,88(sp)
    80002b0a:	1080                	addi	s0,sp,96
    80002b0c:	faa43c23          	sd	a0,-72(s0)
    80002b10:	fab43823          	sd	a1,-80(s0)
    80002b14:	fac43423          	sd	a2,-88(s0)
    80002b18:	fb043783          	ld	a5,-80(s0)
    80002b1c:	0007c783          	lbu	a5,0(a5)
    80002b20:	2781                	sext.w	a5,a5
    80002b22:	0187979b          	slliw	a5,a5,0x18
    80002b26:	0007871b          	sext.w	a4,a5
    80002b2a:	fb043783          	ld	a5,-80(s0)
    80002b2e:	0785                	addi	a5,a5,1
    80002b30:	0007c783          	lbu	a5,0(a5)
    80002b34:	2781                	sext.w	a5,a5
    80002b36:	0107979b          	slliw	a5,a5,0x10
    80002b3a:	2781                	sext.w	a5,a5
    80002b3c:	8fb9                	xor	a5,a5,a4
    80002b3e:	0007871b          	sext.w	a4,a5
    80002b42:	fb043783          	ld	a5,-80(s0)
    80002b46:	0789                	addi	a5,a5,2
    80002b48:	0007c783          	lbu	a5,0(a5)
    80002b4c:	2781                	sext.w	a5,a5
    80002b4e:	0087979b          	slliw	a5,a5,0x8
    80002b52:	2781                	sext.w	a5,a5
    80002b54:	8fb9                	xor	a5,a5,a4
    80002b56:	0007871b          	sext.w	a4,a5
    80002b5a:	fb043783          	ld	a5,-80(s0)
    80002b5e:	078d                	addi	a5,a5,3
    80002b60:	0007c783          	lbu	a5,0(a5)
    80002b64:	2781                	sext.w	a5,a5
    80002b66:	8fb9                	xor	a5,a5,a4
    80002b68:	0007871b          	sext.w	a4,a5
    80002b6c:	fb843783          	ld	a5,-72(s0)
    80002b70:	439c                	lw	a5,0(a5)
    80002b72:	8fb9                	xor	a5,a5,a4
    80002b74:	fef42623          	sw	a5,-20(s0)
    80002b78:	fb043783          	ld	a5,-80(s0)
    80002b7c:	0791                	addi	a5,a5,4
    80002b7e:	0007c783          	lbu	a5,0(a5)
    80002b82:	2781                	sext.w	a5,a5
    80002b84:	0187979b          	slliw	a5,a5,0x18
    80002b88:	0007871b          	sext.w	a4,a5
    80002b8c:	fb043783          	ld	a5,-80(s0)
    80002b90:	0795                	addi	a5,a5,5
    80002b92:	0007c783          	lbu	a5,0(a5)
    80002b96:	2781                	sext.w	a5,a5
    80002b98:	0107979b          	slliw	a5,a5,0x10
    80002b9c:	2781                	sext.w	a5,a5
    80002b9e:	8fb9                	xor	a5,a5,a4
    80002ba0:	0007871b          	sext.w	a4,a5
    80002ba4:	fb043783          	ld	a5,-80(s0)
    80002ba8:	0799                	addi	a5,a5,6
    80002baa:	0007c783          	lbu	a5,0(a5)
    80002bae:	2781                	sext.w	a5,a5
    80002bb0:	0087979b          	slliw	a5,a5,0x8
    80002bb4:	2781                	sext.w	a5,a5
    80002bb6:	8fb9                	xor	a5,a5,a4
    80002bb8:	0007871b          	sext.w	a4,a5
    80002bbc:	fb043783          	ld	a5,-80(s0)
    80002bc0:	079d                	addi	a5,a5,7
    80002bc2:	0007c783          	lbu	a5,0(a5)
    80002bc6:	2781                	sext.w	a5,a5
    80002bc8:	8fb9                	xor	a5,a5,a4
    80002bca:	0007871b          	sext.w	a4,a5
    80002bce:	fb843783          	ld	a5,-72(s0)
    80002bd2:	43dc                	lw	a5,4(a5)
    80002bd4:	8fb9                	xor	a5,a5,a4
    80002bd6:	fef42423          	sw	a5,-24(s0)
    80002bda:	fb043783          	ld	a5,-80(s0)
    80002bde:	07a1                	addi	a5,a5,8
    80002be0:	0007c783          	lbu	a5,0(a5)
    80002be4:	2781                	sext.w	a5,a5
    80002be6:	0187979b          	slliw	a5,a5,0x18
    80002bea:	0007871b          	sext.w	a4,a5
    80002bee:	fb043783          	ld	a5,-80(s0)
    80002bf2:	07a5                	addi	a5,a5,9
    80002bf4:	0007c783          	lbu	a5,0(a5)
    80002bf8:	2781                	sext.w	a5,a5
    80002bfa:	0107979b          	slliw	a5,a5,0x10
    80002bfe:	2781                	sext.w	a5,a5
    80002c00:	8fb9                	xor	a5,a5,a4
    80002c02:	0007871b          	sext.w	a4,a5
    80002c06:	fb043783          	ld	a5,-80(s0)
    80002c0a:	07a9                	addi	a5,a5,10
    80002c0c:	0007c783          	lbu	a5,0(a5)
    80002c10:	2781                	sext.w	a5,a5
    80002c12:	0087979b          	slliw	a5,a5,0x8
    80002c16:	2781                	sext.w	a5,a5
    80002c18:	8fb9                	xor	a5,a5,a4
    80002c1a:	0007871b          	sext.w	a4,a5
    80002c1e:	fb043783          	ld	a5,-80(s0)
    80002c22:	07ad                	addi	a5,a5,11
    80002c24:	0007c783          	lbu	a5,0(a5)
    80002c28:	2781                	sext.w	a5,a5
    80002c2a:	8fb9                	xor	a5,a5,a4
    80002c2c:	0007871b          	sext.w	a4,a5
    80002c30:	fb843783          	ld	a5,-72(s0)
    80002c34:	479c                	lw	a5,8(a5)
    80002c36:	8fb9                	xor	a5,a5,a4
    80002c38:	fef42223          	sw	a5,-28(s0)
    80002c3c:	fb043783          	ld	a5,-80(s0)
    80002c40:	07b1                	addi	a5,a5,12
    80002c42:	0007c783          	lbu	a5,0(a5)
    80002c46:	2781                	sext.w	a5,a5
    80002c48:	0187979b          	slliw	a5,a5,0x18
    80002c4c:	0007871b          	sext.w	a4,a5
    80002c50:	fb043783          	ld	a5,-80(s0)
    80002c54:	07b5                	addi	a5,a5,13
    80002c56:	0007c783          	lbu	a5,0(a5)
    80002c5a:	2781                	sext.w	a5,a5
    80002c5c:	0107979b          	slliw	a5,a5,0x10
    80002c60:	2781                	sext.w	a5,a5
    80002c62:	8fb9                	xor	a5,a5,a4
    80002c64:	0007871b          	sext.w	a4,a5
    80002c68:	fb043783          	ld	a5,-80(s0)
    80002c6c:	07b9                	addi	a5,a5,14
    80002c6e:	0007c783          	lbu	a5,0(a5)
    80002c72:	2781                	sext.w	a5,a5
    80002c74:	0087979b          	slliw	a5,a5,0x8
    80002c78:	2781                	sext.w	a5,a5
    80002c7a:	8fb9                	xor	a5,a5,a4
    80002c7c:	0007871b          	sext.w	a4,a5
    80002c80:	fb043783          	ld	a5,-80(s0)
    80002c84:	07bd                	addi	a5,a5,15
    80002c86:	0007c783          	lbu	a5,0(a5)
    80002c8a:	2781                	sext.w	a5,a5
    80002c8c:	8fb9                	xor	a5,a5,a4
    80002c8e:	0007871b          	sext.w	a4,a5
    80002c92:	fb843783          	ld	a5,-72(s0)
    80002c96:	47dc                	lw	a5,12(a5)
    80002c98:	8fb9                	xor	a5,a5,a4
    80002c9a:	fef42023          	sw	a5,-32(s0)
    80002c9e:	fb043783          	ld	a5,-80(s0)
    80002ca2:	0007c783          	lbu	a5,0(a5)
    80002ca6:	2781                	sext.w	a5,a5
    80002ca8:	0187979b          	slliw	a5,a5,0x18
    80002cac:	0007871b          	sext.w	a4,a5
    80002cb0:	fb043783          	ld	a5,-80(s0)
    80002cb4:	0785                	addi	a5,a5,1
    80002cb6:	0007c783          	lbu	a5,0(a5)
    80002cba:	2781                	sext.w	a5,a5
    80002cbc:	0107979b          	slliw	a5,a5,0x10
    80002cc0:	2781                	sext.w	a5,a5
    80002cc2:	8fb9                	xor	a5,a5,a4
    80002cc4:	0007871b          	sext.w	a4,a5
    80002cc8:	fb043783          	ld	a5,-80(s0)
    80002ccc:	0789                	addi	a5,a5,2
    80002cce:	0007c783          	lbu	a5,0(a5)
    80002cd2:	2781                	sext.w	a5,a5
    80002cd4:	0087979b          	slliw	a5,a5,0x8
    80002cd8:	2781                	sext.w	a5,a5
    80002cda:	8fb9                	xor	a5,a5,a4
    80002cdc:	0007871b          	sext.w	a4,a5
    80002ce0:	fb043783          	ld	a5,-80(s0)
    80002ce4:	078d                	addi	a5,a5,3
    80002ce6:	0007c783          	lbu	a5,0(a5)
    80002cea:	2781                	sext.w	a5,a5
    80002cec:	8fb9                	xor	a5,a5,a4
    80002cee:	2781                	sext.w	a5,a5
    80002cf0:	fcf42023          	sw	a5,-64(s0)
    80002cf4:	fb043783          	ld	a5,-80(s0)
    80002cf8:	0791                	addi	a5,a5,4
    80002cfa:	0007c783          	lbu	a5,0(a5)
    80002cfe:	2781                	sext.w	a5,a5
    80002d00:	0187979b          	slliw	a5,a5,0x18
    80002d04:	0007871b          	sext.w	a4,a5
    80002d08:	fb043783          	ld	a5,-80(s0)
    80002d0c:	0795                	addi	a5,a5,5
    80002d0e:	0007c783          	lbu	a5,0(a5)
    80002d12:	2781                	sext.w	a5,a5
    80002d14:	0107979b          	slliw	a5,a5,0x10
    80002d18:	2781                	sext.w	a5,a5
    80002d1a:	8fb9                	xor	a5,a5,a4
    80002d1c:	0007871b          	sext.w	a4,a5
    80002d20:	fb043783          	ld	a5,-80(s0)
    80002d24:	0799                	addi	a5,a5,6
    80002d26:	0007c783          	lbu	a5,0(a5)
    80002d2a:	2781                	sext.w	a5,a5
    80002d2c:	0087979b          	slliw	a5,a5,0x8
    80002d30:	2781                	sext.w	a5,a5
    80002d32:	8fb9                	xor	a5,a5,a4
    80002d34:	0007871b          	sext.w	a4,a5
    80002d38:	fb043783          	ld	a5,-80(s0)
    80002d3c:	079d                	addi	a5,a5,7
    80002d3e:	0007c783          	lbu	a5,0(a5)
    80002d42:	2781                	sext.w	a5,a5
    80002d44:	8fb9                	xor	a5,a5,a4
    80002d46:	2781                	sext.w	a5,a5
    80002d48:	fcf42223          	sw	a5,-60(s0)
    80002d4c:	fb043783          	ld	a5,-80(s0)
    80002d50:	07a1                	addi	a5,a5,8
    80002d52:	0007c783          	lbu	a5,0(a5)
    80002d56:	2781                	sext.w	a5,a5
    80002d58:	0187979b          	slliw	a5,a5,0x18
    80002d5c:	0007871b          	sext.w	a4,a5
    80002d60:	fb043783          	ld	a5,-80(s0)
    80002d64:	07a5                	addi	a5,a5,9
    80002d66:	0007c783          	lbu	a5,0(a5)
    80002d6a:	2781                	sext.w	a5,a5
    80002d6c:	0107979b          	slliw	a5,a5,0x10
    80002d70:	2781                	sext.w	a5,a5
    80002d72:	8fb9                	xor	a5,a5,a4
    80002d74:	0007871b          	sext.w	a4,a5
    80002d78:	fb043783          	ld	a5,-80(s0)
    80002d7c:	07a9                	addi	a5,a5,10
    80002d7e:	0007c783          	lbu	a5,0(a5)
    80002d82:	2781                	sext.w	a5,a5
    80002d84:	0087979b          	slliw	a5,a5,0x8
    80002d88:	2781                	sext.w	a5,a5
    80002d8a:	8fb9                	xor	a5,a5,a4
    80002d8c:	0007871b          	sext.w	a4,a5
    80002d90:	fb043783          	ld	a5,-80(s0)
    80002d94:	07ad                	addi	a5,a5,11
    80002d96:	0007c783          	lbu	a5,0(a5)
    80002d9a:	2781                	sext.w	a5,a5
    80002d9c:	8fb9                	xor	a5,a5,a4
    80002d9e:	2781                	sext.w	a5,a5
    80002da0:	fcf42423          	sw	a5,-56(s0)
    80002da4:	fb043783          	ld	a5,-80(s0)
    80002da8:	07b1                	addi	a5,a5,12
    80002daa:	0007c783          	lbu	a5,0(a5)
    80002dae:	2781                	sext.w	a5,a5
    80002db0:	0187979b          	slliw	a5,a5,0x18
    80002db4:	0007871b          	sext.w	a4,a5
    80002db8:	fb043783          	ld	a5,-80(s0)
    80002dbc:	07b5                	addi	a5,a5,13
    80002dbe:	0007c783          	lbu	a5,0(a5)
    80002dc2:	2781                	sext.w	a5,a5
    80002dc4:	0107979b          	slliw	a5,a5,0x10
    80002dc8:	2781                	sext.w	a5,a5
    80002dca:	8fb9                	xor	a5,a5,a4
    80002dcc:	0007871b          	sext.w	a4,a5
    80002dd0:	fb043783          	ld	a5,-80(s0)
    80002dd4:	07b9                	addi	a5,a5,14
    80002dd6:	0007c783          	lbu	a5,0(a5)
    80002dda:	2781                	sext.w	a5,a5
    80002ddc:	0087979b          	slliw	a5,a5,0x8
    80002de0:	2781                	sext.w	a5,a5
    80002de2:	8fb9                	xor	a5,a5,a4
    80002de4:	0007871b          	sext.w	a4,a5
    80002de8:	fb043783          	ld	a5,-80(s0)
    80002dec:	07bd                	addi	a5,a5,15
    80002dee:	0007c783          	lbu	a5,0(a5)
    80002df2:	2781                	sext.w	a5,a5
    80002df4:	8fb9                	xor	a5,a5,a4
    80002df6:	2781                	sext.w	a5,a5
    80002df8:	fcf42623          	sw	a5,-52(s0)
    80002dfc:	fec42783          	lw	a5,-20(s0)
    80002e00:	0187d79b          	srliw	a5,a5,0x18
    80002e04:	2781                	sext.w	a5,a5
    80002e06:	00005717          	auipc	a4,0x5
    80002e0a:	9e270713          	addi	a4,a4,-1566 # 800077e8 <Td0>
    80002e0e:	1782                	slli	a5,a5,0x20
    80002e10:	9381                	srli	a5,a5,0x20
    80002e12:	078a                	slli	a5,a5,0x2
    80002e14:	97ba                	add	a5,a5,a4
    80002e16:	4394                	lw	a3,0(a5)
    80002e18:	fe042783          	lw	a5,-32(s0)
    80002e1c:	0107d79b          	srliw	a5,a5,0x10
    80002e20:	2781                	sext.w	a5,a5
    80002e22:	0ff7f793          	andi	a5,a5,255
    80002e26:	2781                	sext.w	a5,a5
    80002e28:	00005717          	auipc	a4,0x5
    80002e2c:	dc070713          	addi	a4,a4,-576 # 80007be8 <Td1>
    80002e30:	1782                	slli	a5,a5,0x20
    80002e32:	9381                	srli	a5,a5,0x20
    80002e34:	078a                	slli	a5,a5,0x2
    80002e36:	97ba                	add	a5,a5,a4
    80002e38:	439c                	lw	a5,0(a5)
    80002e3a:	8736                	mv	a4,a3
    80002e3c:	8fb9                	xor	a5,a5,a4
    80002e3e:	0007869b          	sext.w	a3,a5
    80002e42:	fe442783          	lw	a5,-28(s0)
    80002e46:	0087d79b          	srliw	a5,a5,0x8
    80002e4a:	2781                	sext.w	a5,a5
    80002e4c:	0ff7f793          	andi	a5,a5,255
    80002e50:	2781                	sext.w	a5,a5
    80002e52:	00005717          	auipc	a4,0x5
    80002e56:	19670713          	addi	a4,a4,406 # 80007fe8 <Td2>
    80002e5a:	1782                	slli	a5,a5,0x20
    80002e5c:	9381                	srli	a5,a5,0x20
    80002e5e:	078a                	slli	a5,a5,0x2
    80002e60:	97ba                	add	a5,a5,a4
    80002e62:	439c                	lw	a5,0(a5)
    80002e64:	8736                	mv	a4,a3
    80002e66:	8fb9                	xor	a5,a5,a4
    80002e68:	0007869b          	sext.w	a3,a5
    80002e6c:	fe842783          	lw	a5,-24(s0)
    80002e70:	0ff7f793          	andi	a5,a5,255
    80002e74:	2781                	sext.w	a5,a5
    80002e76:	00005717          	auipc	a4,0x5
    80002e7a:	57270713          	addi	a4,a4,1394 # 800083e8 <Td3>
    80002e7e:	1782                	slli	a5,a5,0x20
    80002e80:	9381                	srli	a5,a5,0x20
    80002e82:	078a                	slli	a5,a5,0x2
    80002e84:	97ba                	add	a5,a5,a4
    80002e86:	439c                	lw	a5,0(a5)
    80002e88:	8736                	mv	a4,a3
    80002e8a:	8fb9                	xor	a5,a5,a4
    80002e8c:	0007871b          	sext.w	a4,a5
    80002e90:	fb843783          	ld	a5,-72(s0)
    80002e94:	4b9c                	lw	a5,16(a5)
    80002e96:	8fb9                	xor	a5,a5,a4
    80002e98:	fcf42e23          	sw	a5,-36(s0)
    80002e9c:	fe842783          	lw	a5,-24(s0)
    80002ea0:	0187d79b          	srliw	a5,a5,0x18
    80002ea4:	2781                	sext.w	a5,a5
    80002ea6:	00005717          	auipc	a4,0x5
    80002eaa:	94270713          	addi	a4,a4,-1726 # 800077e8 <Td0>
    80002eae:	1782                	slli	a5,a5,0x20
    80002eb0:	9381                	srli	a5,a5,0x20
    80002eb2:	078a                	slli	a5,a5,0x2
    80002eb4:	97ba                	add	a5,a5,a4
    80002eb6:	4394                	lw	a3,0(a5)
    80002eb8:	fec42783          	lw	a5,-20(s0)
    80002ebc:	0107d79b          	srliw	a5,a5,0x10
    80002ec0:	2781                	sext.w	a5,a5
    80002ec2:	0ff7f793          	andi	a5,a5,255
    80002ec6:	2781                	sext.w	a5,a5
    80002ec8:	00005717          	auipc	a4,0x5
    80002ecc:	d2070713          	addi	a4,a4,-736 # 80007be8 <Td1>
    80002ed0:	1782                	slli	a5,a5,0x20
    80002ed2:	9381                	srli	a5,a5,0x20
    80002ed4:	078a                	slli	a5,a5,0x2
    80002ed6:	97ba                	add	a5,a5,a4
    80002ed8:	439c                	lw	a5,0(a5)
    80002eda:	8736                	mv	a4,a3
    80002edc:	8fb9                	xor	a5,a5,a4
    80002ede:	0007869b          	sext.w	a3,a5
    80002ee2:	fe042783          	lw	a5,-32(s0)
    80002ee6:	0087d79b          	srliw	a5,a5,0x8
    80002eea:	2781                	sext.w	a5,a5
    80002eec:	0ff7f793          	andi	a5,a5,255
    80002ef0:	2781                	sext.w	a5,a5
    80002ef2:	00005717          	auipc	a4,0x5
    80002ef6:	0f670713          	addi	a4,a4,246 # 80007fe8 <Td2>
    80002efa:	1782                	slli	a5,a5,0x20
    80002efc:	9381                	srli	a5,a5,0x20
    80002efe:	078a                	slli	a5,a5,0x2
    80002f00:	97ba                	add	a5,a5,a4
    80002f02:	439c                	lw	a5,0(a5)
    80002f04:	8736                	mv	a4,a3
    80002f06:	8fb9                	xor	a5,a5,a4
    80002f08:	0007869b          	sext.w	a3,a5
    80002f0c:	fe442783          	lw	a5,-28(s0)
    80002f10:	0ff7f793          	andi	a5,a5,255
    80002f14:	2781                	sext.w	a5,a5
    80002f16:	00005717          	auipc	a4,0x5
    80002f1a:	4d270713          	addi	a4,a4,1234 # 800083e8 <Td3>
    80002f1e:	1782                	slli	a5,a5,0x20
    80002f20:	9381                	srli	a5,a5,0x20
    80002f22:	078a                	slli	a5,a5,0x2
    80002f24:	97ba                	add	a5,a5,a4
    80002f26:	439c                	lw	a5,0(a5)
    80002f28:	8736                	mv	a4,a3
    80002f2a:	8fb9                	xor	a5,a5,a4
    80002f2c:	0007871b          	sext.w	a4,a5
    80002f30:	fb843783          	ld	a5,-72(s0)
    80002f34:	4bdc                	lw	a5,20(a5)
    80002f36:	8fb9                	xor	a5,a5,a4
    80002f38:	fcf42c23          	sw	a5,-40(s0)
    80002f3c:	fe442783          	lw	a5,-28(s0)
    80002f40:	0187d79b          	srliw	a5,a5,0x18
    80002f44:	2781                	sext.w	a5,a5
    80002f46:	00005717          	auipc	a4,0x5
    80002f4a:	8a270713          	addi	a4,a4,-1886 # 800077e8 <Td0>
    80002f4e:	1782                	slli	a5,a5,0x20
    80002f50:	9381                	srli	a5,a5,0x20
    80002f52:	078a                	slli	a5,a5,0x2
    80002f54:	97ba                	add	a5,a5,a4
    80002f56:	4394                	lw	a3,0(a5)
    80002f58:	fe842783          	lw	a5,-24(s0)
    80002f5c:	0107d79b          	srliw	a5,a5,0x10
    80002f60:	2781                	sext.w	a5,a5
    80002f62:	0ff7f793          	andi	a5,a5,255
    80002f66:	2781                	sext.w	a5,a5
    80002f68:	00005717          	auipc	a4,0x5
    80002f6c:	c8070713          	addi	a4,a4,-896 # 80007be8 <Td1>
    80002f70:	1782                	slli	a5,a5,0x20
    80002f72:	9381                	srli	a5,a5,0x20
    80002f74:	078a                	slli	a5,a5,0x2
    80002f76:	97ba                	add	a5,a5,a4
    80002f78:	439c                	lw	a5,0(a5)
    80002f7a:	8736                	mv	a4,a3
    80002f7c:	8fb9                	xor	a5,a5,a4
    80002f7e:	0007869b          	sext.w	a3,a5
    80002f82:	fec42783          	lw	a5,-20(s0)
    80002f86:	0087d79b          	srliw	a5,a5,0x8
    80002f8a:	2781                	sext.w	a5,a5
    80002f8c:	0ff7f793          	andi	a5,a5,255
    80002f90:	2781                	sext.w	a5,a5
    80002f92:	00005717          	auipc	a4,0x5
    80002f96:	05670713          	addi	a4,a4,86 # 80007fe8 <Td2>
    80002f9a:	1782                	slli	a5,a5,0x20
    80002f9c:	9381                	srli	a5,a5,0x20
    80002f9e:	078a                	slli	a5,a5,0x2
    80002fa0:	97ba                	add	a5,a5,a4
    80002fa2:	439c                	lw	a5,0(a5)
    80002fa4:	8736                	mv	a4,a3
    80002fa6:	8fb9                	xor	a5,a5,a4
    80002fa8:	0007869b          	sext.w	a3,a5
    80002fac:	fe042783          	lw	a5,-32(s0)
    80002fb0:	0ff7f793          	andi	a5,a5,255
    80002fb4:	2781                	sext.w	a5,a5
    80002fb6:	00005717          	auipc	a4,0x5
    80002fba:	43270713          	addi	a4,a4,1074 # 800083e8 <Td3>
    80002fbe:	1782                	slli	a5,a5,0x20
    80002fc0:	9381                	srli	a5,a5,0x20
    80002fc2:	078a                	slli	a5,a5,0x2
    80002fc4:	97ba                	add	a5,a5,a4
    80002fc6:	439c                	lw	a5,0(a5)
    80002fc8:	8736                	mv	a4,a3
    80002fca:	8fb9                	xor	a5,a5,a4
    80002fcc:	0007871b          	sext.w	a4,a5
    80002fd0:	fb843783          	ld	a5,-72(s0)
    80002fd4:	4f9c                	lw	a5,24(a5)
    80002fd6:	8fb9                	xor	a5,a5,a4
    80002fd8:	fcf42a23          	sw	a5,-44(s0)
    80002fdc:	fe042783          	lw	a5,-32(s0)
    80002fe0:	0187d79b          	srliw	a5,a5,0x18
    80002fe4:	2781                	sext.w	a5,a5
    80002fe6:	00005717          	auipc	a4,0x5
    80002fea:	80270713          	addi	a4,a4,-2046 # 800077e8 <Td0>
    80002fee:	1782                	slli	a5,a5,0x20
    80002ff0:	9381                	srli	a5,a5,0x20
    80002ff2:	078a                	slli	a5,a5,0x2
    80002ff4:	97ba                	add	a5,a5,a4
    80002ff6:	4394                	lw	a3,0(a5)
    80002ff8:	fe442783          	lw	a5,-28(s0)
    80002ffc:	0107d79b          	srliw	a5,a5,0x10
    80003000:	2781                	sext.w	a5,a5
    80003002:	0ff7f793          	andi	a5,a5,255
    80003006:	2781                	sext.w	a5,a5
    80003008:	00005717          	auipc	a4,0x5
    8000300c:	be070713          	addi	a4,a4,-1056 # 80007be8 <Td1>
    80003010:	1782                	slli	a5,a5,0x20
    80003012:	9381                	srli	a5,a5,0x20
    80003014:	078a                	slli	a5,a5,0x2
    80003016:	97ba                	add	a5,a5,a4
    80003018:	439c                	lw	a5,0(a5)
    8000301a:	8736                	mv	a4,a3
    8000301c:	8fb9                	xor	a5,a5,a4
    8000301e:	0007869b          	sext.w	a3,a5
    80003022:	fe842783          	lw	a5,-24(s0)
    80003026:	0087d79b          	srliw	a5,a5,0x8
    8000302a:	2781                	sext.w	a5,a5
    8000302c:	0ff7f793          	andi	a5,a5,255
    80003030:	2781                	sext.w	a5,a5
    80003032:	00005717          	auipc	a4,0x5
    80003036:	fb670713          	addi	a4,a4,-74 # 80007fe8 <Td2>
    8000303a:	1782                	slli	a5,a5,0x20
    8000303c:	9381                	srli	a5,a5,0x20
    8000303e:	078a                	slli	a5,a5,0x2
    80003040:	97ba                	add	a5,a5,a4
    80003042:	439c                	lw	a5,0(a5)
    80003044:	8736                	mv	a4,a3
    80003046:	8fb9                	xor	a5,a5,a4
    80003048:	0007869b          	sext.w	a3,a5
    8000304c:	fec42783          	lw	a5,-20(s0)
    80003050:	0ff7f793          	andi	a5,a5,255
    80003054:	2781                	sext.w	a5,a5
    80003056:	00005717          	auipc	a4,0x5
    8000305a:	39270713          	addi	a4,a4,914 # 800083e8 <Td3>
    8000305e:	1782                	slli	a5,a5,0x20
    80003060:	9381                	srli	a5,a5,0x20
    80003062:	078a                	slli	a5,a5,0x2
    80003064:	97ba                	add	a5,a5,a4
    80003066:	439c                	lw	a5,0(a5)
    80003068:	8736                	mv	a4,a3
    8000306a:	8fb9                	xor	a5,a5,a4
    8000306c:	0007871b          	sext.w	a4,a5
    80003070:	fb843783          	ld	a5,-72(s0)
    80003074:	4fdc                	lw	a5,28(a5)
    80003076:	8fb9                	xor	a5,a5,a4
    80003078:	fcf42823          	sw	a5,-48(s0)
    8000307c:	fdc42783          	lw	a5,-36(s0)
    80003080:	0187d79b          	srliw	a5,a5,0x18
    80003084:	2781                	sext.w	a5,a5
    80003086:	00004717          	auipc	a4,0x4
    8000308a:	76270713          	addi	a4,a4,1890 # 800077e8 <Td0>
    8000308e:	1782                	slli	a5,a5,0x20
    80003090:	9381                	srli	a5,a5,0x20
    80003092:	078a                	slli	a5,a5,0x2
    80003094:	97ba                	add	a5,a5,a4
    80003096:	4394                	lw	a3,0(a5)
    80003098:	fd042783          	lw	a5,-48(s0)
    8000309c:	0107d79b          	srliw	a5,a5,0x10
    800030a0:	2781                	sext.w	a5,a5
    800030a2:	0ff7f793          	andi	a5,a5,255
    800030a6:	2781                	sext.w	a5,a5
    800030a8:	00005717          	auipc	a4,0x5
    800030ac:	b4070713          	addi	a4,a4,-1216 # 80007be8 <Td1>
    800030b0:	1782                	slli	a5,a5,0x20
    800030b2:	9381                	srli	a5,a5,0x20
    800030b4:	078a                	slli	a5,a5,0x2
    800030b6:	97ba                	add	a5,a5,a4
    800030b8:	439c                	lw	a5,0(a5)
    800030ba:	8736                	mv	a4,a3
    800030bc:	8fb9                	xor	a5,a5,a4
    800030be:	0007869b          	sext.w	a3,a5
    800030c2:	fd442783          	lw	a5,-44(s0)
    800030c6:	0087d79b          	srliw	a5,a5,0x8
    800030ca:	2781                	sext.w	a5,a5
    800030cc:	0ff7f793          	andi	a5,a5,255
    800030d0:	2781                	sext.w	a5,a5
    800030d2:	00005717          	auipc	a4,0x5
    800030d6:	f1670713          	addi	a4,a4,-234 # 80007fe8 <Td2>
    800030da:	1782                	slli	a5,a5,0x20
    800030dc:	9381                	srli	a5,a5,0x20
    800030de:	078a                	slli	a5,a5,0x2
    800030e0:	97ba                	add	a5,a5,a4
    800030e2:	439c                	lw	a5,0(a5)
    800030e4:	8736                	mv	a4,a3
    800030e6:	8fb9                	xor	a5,a5,a4
    800030e8:	0007869b          	sext.w	a3,a5
    800030ec:	fd842783          	lw	a5,-40(s0)
    800030f0:	0ff7f793          	andi	a5,a5,255
    800030f4:	2781                	sext.w	a5,a5
    800030f6:	00005717          	auipc	a4,0x5
    800030fa:	2f270713          	addi	a4,a4,754 # 800083e8 <Td3>
    800030fe:	1782                	slli	a5,a5,0x20
    80003100:	9381                	srli	a5,a5,0x20
    80003102:	078a                	slli	a5,a5,0x2
    80003104:	97ba                	add	a5,a5,a4
    80003106:	439c                	lw	a5,0(a5)
    80003108:	8736                	mv	a4,a3
    8000310a:	8fb9                	xor	a5,a5,a4
    8000310c:	0007871b          	sext.w	a4,a5
    80003110:	fb843783          	ld	a5,-72(s0)
    80003114:	539c                	lw	a5,32(a5)
    80003116:	8fb9                	xor	a5,a5,a4
    80003118:	fef42623          	sw	a5,-20(s0)
    8000311c:	fd842783          	lw	a5,-40(s0)
    80003120:	0187d79b          	srliw	a5,a5,0x18
    80003124:	2781                	sext.w	a5,a5
    80003126:	00004717          	auipc	a4,0x4
    8000312a:	6c270713          	addi	a4,a4,1730 # 800077e8 <Td0>
    8000312e:	1782                	slli	a5,a5,0x20
    80003130:	9381                	srli	a5,a5,0x20
    80003132:	078a                	slli	a5,a5,0x2
    80003134:	97ba                	add	a5,a5,a4
    80003136:	4394                	lw	a3,0(a5)
    80003138:	fdc42783          	lw	a5,-36(s0)
    8000313c:	0107d79b          	srliw	a5,a5,0x10
    80003140:	2781                	sext.w	a5,a5
    80003142:	0ff7f793          	andi	a5,a5,255
    80003146:	2781                	sext.w	a5,a5
    80003148:	00005717          	auipc	a4,0x5
    8000314c:	aa070713          	addi	a4,a4,-1376 # 80007be8 <Td1>
    80003150:	1782                	slli	a5,a5,0x20
    80003152:	9381                	srli	a5,a5,0x20
    80003154:	078a                	slli	a5,a5,0x2
    80003156:	97ba                	add	a5,a5,a4
    80003158:	439c                	lw	a5,0(a5)
    8000315a:	8736                	mv	a4,a3
    8000315c:	8fb9                	xor	a5,a5,a4
    8000315e:	0007869b          	sext.w	a3,a5
    80003162:	fd042783          	lw	a5,-48(s0)
    80003166:	0087d79b          	srliw	a5,a5,0x8
    8000316a:	2781                	sext.w	a5,a5
    8000316c:	0ff7f793          	andi	a5,a5,255
    80003170:	2781                	sext.w	a5,a5
    80003172:	00005717          	auipc	a4,0x5
    80003176:	e7670713          	addi	a4,a4,-394 # 80007fe8 <Td2>
    8000317a:	1782                	slli	a5,a5,0x20
    8000317c:	9381                	srli	a5,a5,0x20
    8000317e:	078a                	slli	a5,a5,0x2
    80003180:	97ba                	add	a5,a5,a4
    80003182:	439c                	lw	a5,0(a5)
    80003184:	8736                	mv	a4,a3
    80003186:	8fb9                	xor	a5,a5,a4
    80003188:	0007869b          	sext.w	a3,a5
    8000318c:	fd442783          	lw	a5,-44(s0)
    80003190:	0ff7f793          	andi	a5,a5,255
    80003194:	2781                	sext.w	a5,a5
    80003196:	00005717          	auipc	a4,0x5
    8000319a:	25270713          	addi	a4,a4,594 # 800083e8 <Td3>
    8000319e:	1782                	slli	a5,a5,0x20
    800031a0:	9381                	srli	a5,a5,0x20
    800031a2:	078a                	slli	a5,a5,0x2
    800031a4:	97ba                	add	a5,a5,a4
    800031a6:	439c                	lw	a5,0(a5)
    800031a8:	8736                	mv	a4,a3
    800031aa:	8fb9                	xor	a5,a5,a4
    800031ac:	0007871b          	sext.w	a4,a5
    800031b0:	fb843783          	ld	a5,-72(s0)
    800031b4:	53dc                	lw	a5,36(a5)
    800031b6:	8fb9                	xor	a5,a5,a4
    800031b8:	fef42423          	sw	a5,-24(s0)
    800031bc:	fd442783          	lw	a5,-44(s0)
    800031c0:	0187d79b          	srliw	a5,a5,0x18
    800031c4:	2781                	sext.w	a5,a5
    800031c6:	00004717          	auipc	a4,0x4
    800031ca:	62270713          	addi	a4,a4,1570 # 800077e8 <Td0>
    800031ce:	1782                	slli	a5,a5,0x20
    800031d0:	9381                	srli	a5,a5,0x20
    800031d2:	078a                	slli	a5,a5,0x2
    800031d4:	97ba                	add	a5,a5,a4
    800031d6:	4394                	lw	a3,0(a5)
    800031d8:	fd842783          	lw	a5,-40(s0)
    800031dc:	0107d79b          	srliw	a5,a5,0x10
    800031e0:	2781                	sext.w	a5,a5
    800031e2:	0ff7f793          	andi	a5,a5,255
    800031e6:	2781                	sext.w	a5,a5
    800031e8:	00005717          	auipc	a4,0x5
    800031ec:	a0070713          	addi	a4,a4,-1536 # 80007be8 <Td1>
    800031f0:	1782                	slli	a5,a5,0x20
    800031f2:	9381                	srli	a5,a5,0x20
    800031f4:	078a                	slli	a5,a5,0x2
    800031f6:	97ba                	add	a5,a5,a4
    800031f8:	439c                	lw	a5,0(a5)
    800031fa:	8736                	mv	a4,a3
    800031fc:	8fb9                	xor	a5,a5,a4
    800031fe:	0007869b          	sext.w	a3,a5
    80003202:	fdc42783          	lw	a5,-36(s0)
    80003206:	0087d79b          	srliw	a5,a5,0x8
    8000320a:	2781                	sext.w	a5,a5
    8000320c:	0ff7f793          	andi	a5,a5,255
    80003210:	2781                	sext.w	a5,a5
    80003212:	00005717          	auipc	a4,0x5
    80003216:	dd670713          	addi	a4,a4,-554 # 80007fe8 <Td2>
    8000321a:	1782                	slli	a5,a5,0x20
    8000321c:	9381                	srli	a5,a5,0x20
    8000321e:	078a                	slli	a5,a5,0x2
    80003220:	97ba                	add	a5,a5,a4
    80003222:	439c                	lw	a5,0(a5)
    80003224:	8736                	mv	a4,a3
    80003226:	8fb9                	xor	a5,a5,a4
    80003228:	0007869b          	sext.w	a3,a5
    8000322c:	fd042783          	lw	a5,-48(s0)
    80003230:	0ff7f793          	andi	a5,a5,255
    80003234:	2781                	sext.w	a5,a5
    80003236:	00005717          	auipc	a4,0x5
    8000323a:	1b270713          	addi	a4,a4,434 # 800083e8 <Td3>
    8000323e:	1782                	slli	a5,a5,0x20
    80003240:	9381                	srli	a5,a5,0x20
    80003242:	078a                	slli	a5,a5,0x2
    80003244:	97ba                	add	a5,a5,a4
    80003246:	439c                	lw	a5,0(a5)
    80003248:	8736                	mv	a4,a3
    8000324a:	8fb9                	xor	a5,a5,a4
    8000324c:	0007871b          	sext.w	a4,a5
    80003250:	fb843783          	ld	a5,-72(s0)
    80003254:	579c                	lw	a5,40(a5)
    80003256:	8fb9                	xor	a5,a5,a4
    80003258:	fef42223          	sw	a5,-28(s0)
    8000325c:	fd042783          	lw	a5,-48(s0)
    80003260:	0187d79b          	srliw	a5,a5,0x18
    80003264:	2781                	sext.w	a5,a5
    80003266:	00004717          	auipc	a4,0x4
    8000326a:	58270713          	addi	a4,a4,1410 # 800077e8 <Td0>
    8000326e:	1782                	slli	a5,a5,0x20
    80003270:	9381                	srli	a5,a5,0x20
    80003272:	078a                	slli	a5,a5,0x2
    80003274:	97ba                	add	a5,a5,a4
    80003276:	4394                	lw	a3,0(a5)
    80003278:	fd442783          	lw	a5,-44(s0)
    8000327c:	0107d79b          	srliw	a5,a5,0x10
    80003280:	2781                	sext.w	a5,a5
    80003282:	0ff7f793          	andi	a5,a5,255
    80003286:	2781                	sext.w	a5,a5
    80003288:	00005717          	auipc	a4,0x5
    8000328c:	96070713          	addi	a4,a4,-1696 # 80007be8 <Td1>
    80003290:	1782                	slli	a5,a5,0x20
    80003292:	9381                	srli	a5,a5,0x20
    80003294:	078a                	slli	a5,a5,0x2
    80003296:	97ba                	add	a5,a5,a4
    80003298:	439c                	lw	a5,0(a5)
    8000329a:	8736                	mv	a4,a3
    8000329c:	8fb9                	xor	a5,a5,a4
    8000329e:	0007869b          	sext.w	a3,a5
    800032a2:	fd842783          	lw	a5,-40(s0)
    800032a6:	0087d79b          	srliw	a5,a5,0x8
    800032aa:	2781                	sext.w	a5,a5
    800032ac:	0ff7f793          	andi	a5,a5,255
    800032b0:	2781                	sext.w	a5,a5
    800032b2:	00005717          	auipc	a4,0x5
    800032b6:	d3670713          	addi	a4,a4,-714 # 80007fe8 <Td2>
    800032ba:	1782                	slli	a5,a5,0x20
    800032bc:	9381                	srli	a5,a5,0x20
    800032be:	078a                	slli	a5,a5,0x2
    800032c0:	97ba                	add	a5,a5,a4
    800032c2:	439c                	lw	a5,0(a5)
    800032c4:	8736                	mv	a4,a3
    800032c6:	8fb9                	xor	a5,a5,a4
    800032c8:	0007869b          	sext.w	a3,a5
    800032cc:	fdc42783          	lw	a5,-36(s0)
    800032d0:	0ff7f793          	andi	a5,a5,255
    800032d4:	2781                	sext.w	a5,a5
    800032d6:	00005717          	auipc	a4,0x5
    800032da:	11270713          	addi	a4,a4,274 # 800083e8 <Td3>
    800032de:	1782                	slli	a5,a5,0x20
    800032e0:	9381                	srli	a5,a5,0x20
    800032e2:	078a                	slli	a5,a5,0x2
    800032e4:	97ba                	add	a5,a5,a4
    800032e6:	439c                	lw	a5,0(a5)
    800032e8:	8736                	mv	a4,a3
    800032ea:	8fb9                	xor	a5,a5,a4
    800032ec:	0007871b          	sext.w	a4,a5
    800032f0:	fb843783          	ld	a5,-72(s0)
    800032f4:	57dc                	lw	a5,44(a5)
    800032f6:	8fb9                	xor	a5,a5,a4
    800032f8:	fef42023          	sw	a5,-32(s0)
    800032fc:	fec42783          	lw	a5,-20(s0)
    80003300:	0187d79b          	srliw	a5,a5,0x18
    80003304:	2781                	sext.w	a5,a5
    80003306:	00004717          	auipc	a4,0x4
    8000330a:	4e270713          	addi	a4,a4,1250 # 800077e8 <Td0>
    8000330e:	1782                	slli	a5,a5,0x20
    80003310:	9381                	srli	a5,a5,0x20
    80003312:	078a                	slli	a5,a5,0x2
    80003314:	97ba                	add	a5,a5,a4
    80003316:	4394                	lw	a3,0(a5)
    80003318:	fe042783          	lw	a5,-32(s0)
    8000331c:	0107d79b          	srliw	a5,a5,0x10
    80003320:	2781                	sext.w	a5,a5
    80003322:	0ff7f793          	andi	a5,a5,255
    80003326:	2781                	sext.w	a5,a5
    80003328:	00005717          	auipc	a4,0x5
    8000332c:	8c070713          	addi	a4,a4,-1856 # 80007be8 <Td1>
    80003330:	1782                	slli	a5,a5,0x20
    80003332:	9381                	srli	a5,a5,0x20
    80003334:	078a                	slli	a5,a5,0x2
    80003336:	97ba                	add	a5,a5,a4
    80003338:	439c                	lw	a5,0(a5)
    8000333a:	8736                	mv	a4,a3
    8000333c:	8fb9                	xor	a5,a5,a4
    8000333e:	0007869b          	sext.w	a3,a5
    80003342:	fe442783          	lw	a5,-28(s0)
    80003346:	0087d79b          	srliw	a5,a5,0x8
    8000334a:	2781                	sext.w	a5,a5
    8000334c:	0ff7f793          	andi	a5,a5,255
    80003350:	2781                	sext.w	a5,a5
    80003352:	00005717          	auipc	a4,0x5
    80003356:	c9670713          	addi	a4,a4,-874 # 80007fe8 <Td2>
    8000335a:	1782                	slli	a5,a5,0x20
    8000335c:	9381                	srli	a5,a5,0x20
    8000335e:	078a                	slli	a5,a5,0x2
    80003360:	97ba                	add	a5,a5,a4
    80003362:	439c                	lw	a5,0(a5)
    80003364:	8736                	mv	a4,a3
    80003366:	8fb9                	xor	a5,a5,a4
    80003368:	0007869b          	sext.w	a3,a5
    8000336c:	fe842783          	lw	a5,-24(s0)
    80003370:	0ff7f793          	andi	a5,a5,255
    80003374:	2781                	sext.w	a5,a5
    80003376:	00005717          	auipc	a4,0x5
    8000337a:	07270713          	addi	a4,a4,114 # 800083e8 <Td3>
    8000337e:	1782                	slli	a5,a5,0x20
    80003380:	9381                	srli	a5,a5,0x20
    80003382:	078a                	slli	a5,a5,0x2
    80003384:	97ba                	add	a5,a5,a4
    80003386:	439c                	lw	a5,0(a5)
    80003388:	8736                	mv	a4,a3
    8000338a:	8fb9                	xor	a5,a5,a4
    8000338c:	0007871b          	sext.w	a4,a5
    80003390:	fb843783          	ld	a5,-72(s0)
    80003394:	5b9c                	lw	a5,48(a5)
    80003396:	8fb9                	xor	a5,a5,a4
    80003398:	fcf42e23          	sw	a5,-36(s0)
    8000339c:	fe842783          	lw	a5,-24(s0)
    800033a0:	0187d79b          	srliw	a5,a5,0x18
    800033a4:	2781                	sext.w	a5,a5
    800033a6:	00004717          	auipc	a4,0x4
    800033aa:	44270713          	addi	a4,a4,1090 # 800077e8 <Td0>
    800033ae:	1782                	slli	a5,a5,0x20
    800033b0:	9381                	srli	a5,a5,0x20
    800033b2:	078a                	slli	a5,a5,0x2
    800033b4:	97ba                	add	a5,a5,a4
    800033b6:	4394                	lw	a3,0(a5)
    800033b8:	fec42783          	lw	a5,-20(s0)
    800033bc:	0107d79b          	srliw	a5,a5,0x10
    800033c0:	2781                	sext.w	a5,a5
    800033c2:	0ff7f793          	andi	a5,a5,255
    800033c6:	2781                	sext.w	a5,a5
    800033c8:	00005717          	auipc	a4,0x5
    800033cc:	82070713          	addi	a4,a4,-2016 # 80007be8 <Td1>
    800033d0:	1782                	slli	a5,a5,0x20
    800033d2:	9381                	srli	a5,a5,0x20
    800033d4:	078a                	slli	a5,a5,0x2
    800033d6:	97ba                	add	a5,a5,a4
    800033d8:	439c                	lw	a5,0(a5)
    800033da:	8736                	mv	a4,a3
    800033dc:	8fb9                	xor	a5,a5,a4
    800033de:	0007869b          	sext.w	a3,a5
    800033e2:	fe042783          	lw	a5,-32(s0)
    800033e6:	0087d79b          	srliw	a5,a5,0x8
    800033ea:	2781                	sext.w	a5,a5
    800033ec:	0ff7f793          	andi	a5,a5,255
    800033f0:	2781                	sext.w	a5,a5
    800033f2:	00005717          	auipc	a4,0x5
    800033f6:	bf670713          	addi	a4,a4,-1034 # 80007fe8 <Td2>
    800033fa:	1782                	slli	a5,a5,0x20
    800033fc:	9381                	srli	a5,a5,0x20
    800033fe:	078a                	slli	a5,a5,0x2
    80003400:	97ba                	add	a5,a5,a4
    80003402:	439c                	lw	a5,0(a5)
    80003404:	8736                	mv	a4,a3
    80003406:	8fb9                	xor	a5,a5,a4
    80003408:	0007869b          	sext.w	a3,a5
    8000340c:	fe442783          	lw	a5,-28(s0)
    80003410:	0ff7f793          	andi	a5,a5,255
    80003414:	2781                	sext.w	a5,a5
    80003416:	00005717          	auipc	a4,0x5
    8000341a:	fd270713          	addi	a4,a4,-46 # 800083e8 <Td3>
    8000341e:	1782                	slli	a5,a5,0x20
    80003420:	9381                	srli	a5,a5,0x20
    80003422:	078a                	slli	a5,a5,0x2
    80003424:	97ba                	add	a5,a5,a4
    80003426:	439c                	lw	a5,0(a5)
    80003428:	8736                	mv	a4,a3
    8000342a:	8fb9                	xor	a5,a5,a4
    8000342c:	0007871b          	sext.w	a4,a5
    80003430:	fb843783          	ld	a5,-72(s0)
    80003434:	5bdc                	lw	a5,52(a5)
    80003436:	8fb9                	xor	a5,a5,a4
    80003438:	fcf42c23          	sw	a5,-40(s0)
    8000343c:	fe442783          	lw	a5,-28(s0)
    80003440:	0187d79b          	srliw	a5,a5,0x18
    80003444:	2781                	sext.w	a5,a5
    80003446:	00004717          	auipc	a4,0x4
    8000344a:	3a270713          	addi	a4,a4,930 # 800077e8 <Td0>
    8000344e:	1782                	slli	a5,a5,0x20
    80003450:	9381                	srli	a5,a5,0x20
    80003452:	078a                	slli	a5,a5,0x2
    80003454:	97ba                	add	a5,a5,a4
    80003456:	4394                	lw	a3,0(a5)
    80003458:	fe842783          	lw	a5,-24(s0)
    8000345c:	0107d79b          	srliw	a5,a5,0x10
    80003460:	2781                	sext.w	a5,a5
    80003462:	0ff7f793          	andi	a5,a5,255
    80003466:	2781                	sext.w	a5,a5
    80003468:	00004717          	auipc	a4,0x4
    8000346c:	78070713          	addi	a4,a4,1920 # 80007be8 <Td1>
    80003470:	1782                	slli	a5,a5,0x20
    80003472:	9381                	srli	a5,a5,0x20
    80003474:	078a                	slli	a5,a5,0x2
    80003476:	97ba                	add	a5,a5,a4
    80003478:	439c                	lw	a5,0(a5)
    8000347a:	8736                	mv	a4,a3
    8000347c:	8fb9                	xor	a5,a5,a4
    8000347e:	0007869b          	sext.w	a3,a5
    80003482:	fec42783          	lw	a5,-20(s0)
    80003486:	0087d79b          	srliw	a5,a5,0x8
    8000348a:	2781                	sext.w	a5,a5
    8000348c:	0ff7f793          	andi	a5,a5,255
    80003490:	2781                	sext.w	a5,a5
    80003492:	00005717          	auipc	a4,0x5
    80003496:	b5670713          	addi	a4,a4,-1194 # 80007fe8 <Td2>
    8000349a:	1782                	slli	a5,a5,0x20
    8000349c:	9381                	srli	a5,a5,0x20
    8000349e:	078a                	slli	a5,a5,0x2
    800034a0:	97ba                	add	a5,a5,a4
    800034a2:	439c                	lw	a5,0(a5)
    800034a4:	8736                	mv	a4,a3
    800034a6:	8fb9                	xor	a5,a5,a4
    800034a8:	0007869b          	sext.w	a3,a5
    800034ac:	fe042783          	lw	a5,-32(s0)
    800034b0:	0ff7f793          	andi	a5,a5,255
    800034b4:	2781                	sext.w	a5,a5
    800034b6:	00005717          	auipc	a4,0x5
    800034ba:	f3270713          	addi	a4,a4,-206 # 800083e8 <Td3>
    800034be:	1782                	slli	a5,a5,0x20
    800034c0:	9381                	srli	a5,a5,0x20
    800034c2:	078a                	slli	a5,a5,0x2
    800034c4:	97ba                	add	a5,a5,a4
    800034c6:	439c                	lw	a5,0(a5)
    800034c8:	8736                	mv	a4,a3
    800034ca:	8fb9                	xor	a5,a5,a4
    800034cc:	0007871b          	sext.w	a4,a5
    800034d0:	fb843783          	ld	a5,-72(s0)
    800034d4:	5f9c                	lw	a5,56(a5)
    800034d6:	8fb9                	xor	a5,a5,a4
    800034d8:	fcf42a23          	sw	a5,-44(s0)
    800034dc:	fe042783          	lw	a5,-32(s0)
    800034e0:	0187d79b          	srliw	a5,a5,0x18
    800034e4:	2781                	sext.w	a5,a5
    800034e6:	00004717          	auipc	a4,0x4
    800034ea:	30270713          	addi	a4,a4,770 # 800077e8 <Td0>
    800034ee:	1782                	slli	a5,a5,0x20
    800034f0:	9381                	srli	a5,a5,0x20
    800034f2:	078a                	slli	a5,a5,0x2
    800034f4:	97ba                	add	a5,a5,a4
    800034f6:	4394                	lw	a3,0(a5)
    800034f8:	fe442783          	lw	a5,-28(s0)
    800034fc:	0107d79b          	srliw	a5,a5,0x10
    80003500:	2781                	sext.w	a5,a5
    80003502:	0ff7f793          	andi	a5,a5,255
    80003506:	2781                	sext.w	a5,a5
    80003508:	00004717          	auipc	a4,0x4
    8000350c:	6e070713          	addi	a4,a4,1760 # 80007be8 <Td1>
    80003510:	1782                	slli	a5,a5,0x20
    80003512:	9381                	srli	a5,a5,0x20
    80003514:	078a                	slli	a5,a5,0x2
    80003516:	97ba                	add	a5,a5,a4
    80003518:	439c                	lw	a5,0(a5)
    8000351a:	8736                	mv	a4,a3
    8000351c:	8fb9                	xor	a5,a5,a4
    8000351e:	0007869b          	sext.w	a3,a5
    80003522:	fe842783          	lw	a5,-24(s0)
    80003526:	0087d79b          	srliw	a5,a5,0x8
    8000352a:	2781                	sext.w	a5,a5
    8000352c:	0ff7f793          	andi	a5,a5,255
    80003530:	2781                	sext.w	a5,a5
    80003532:	00005717          	auipc	a4,0x5
    80003536:	ab670713          	addi	a4,a4,-1354 # 80007fe8 <Td2>
    8000353a:	1782                	slli	a5,a5,0x20
    8000353c:	9381                	srli	a5,a5,0x20
    8000353e:	078a                	slli	a5,a5,0x2
    80003540:	97ba                	add	a5,a5,a4
    80003542:	439c                	lw	a5,0(a5)
    80003544:	8736                	mv	a4,a3
    80003546:	8fb9                	xor	a5,a5,a4
    80003548:	0007869b          	sext.w	a3,a5
    8000354c:	fec42783          	lw	a5,-20(s0)
    80003550:	0ff7f793          	andi	a5,a5,255
    80003554:	2781                	sext.w	a5,a5
    80003556:	00005717          	auipc	a4,0x5
    8000355a:	e9270713          	addi	a4,a4,-366 # 800083e8 <Td3>
    8000355e:	1782                	slli	a5,a5,0x20
    80003560:	9381                	srli	a5,a5,0x20
    80003562:	078a                	slli	a5,a5,0x2
    80003564:	97ba                	add	a5,a5,a4
    80003566:	439c                	lw	a5,0(a5)
    80003568:	8736                	mv	a4,a3
    8000356a:	8fb9                	xor	a5,a5,a4
    8000356c:	0007871b          	sext.w	a4,a5
    80003570:	fb843783          	ld	a5,-72(s0)
    80003574:	5fdc                	lw	a5,60(a5)
    80003576:	8fb9                	xor	a5,a5,a4
    80003578:	fcf42823          	sw	a5,-48(s0)
    8000357c:	fdc42783          	lw	a5,-36(s0)
    80003580:	0187d79b          	srliw	a5,a5,0x18
    80003584:	2781                	sext.w	a5,a5
    80003586:	00004717          	auipc	a4,0x4
    8000358a:	26270713          	addi	a4,a4,610 # 800077e8 <Td0>
    8000358e:	1782                	slli	a5,a5,0x20
    80003590:	9381                	srli	a5,a5,0x20
    80003592:	078a                	slli	a5,a5,0x2
    80003594:	97ba                	add	a5,a5,a4
    80003596:	4394                	lw	a3,0(a5)
    80003598:	fd042783          	lw	a5,-48(s0)
    8000359c:	0107d79b          	srliw	a5,a5,0x10
    800035a0:	2781                	sext.w	a5,a5
    800035a2:	0ff7f793          	andi	a5,a5,255
    800035a6:	2781                	sext.w	a5,a5
    800035a8:	00004717          	auipc	a4,0x4
    800035ac:	64070713          	addi	a4,a4,1600 # 80007be8 <Td1>
    800035b0:	1782                	slli	a5,a5,0x20
    800035b2:	9381                	srli	a5,a5,0x20
    800035b4:	078a                	slli	a5,a5,0x2
    800035b6:	97ba                	add	a5,a5,a4
    800035b8:	439c                	lw	a5,0(a5)
    800035ba:	8736                	mv	a4,a3
    800035bc:	8fb9                	xor	a5,a5,a4
    800035be:	0007869b          	sext.w	a3,a5
    800035c2:	fd442783          	lw	a5,-44(s0)
    800035c6:	0087d79b          	srliw	a5,a5,0x8
    800035ca:	2781                	sext.w	a5,a5
    800035cc:	0ff7f793          	andi	a5,a5,255
    800035d0:	2781                	sext.w	a5,a5
    800035d2:	00005717          	auipc	a4,0x5
    800035d6:	a1670713          	addi	a4,a4,-1514 # 80007fe8 <Td2>
    800035da:	1782                	slli	a5,a5,0x20
    800035dc:	9381                	srli	a5,a5,0x20
    800035de:	078a                	slli	a5,a5,0x2
    800035e0:	97ba                	add	a5,a5,a4
    800035e2:	439c                	lw	a5,0(a5)
    800035e4:	8736                	mv	a4,a3
    800035e6:	8fb9                	xor	a5,a5,a4
    800035e8:	0007869b          	sext.w	a3,a5
    800035ec:	fd842783          	lw	a5,-40(s0)
    800035f0:	0ff7f793          	andi	a5,a5,255
    800035f4:	2781                	sext.w	a5,a5
    800035f6:	00005717          	auipc	a4,0x5
    800035fa:	df270713          	addi	a4,a4,-526 # 800083e8 <Td3>
    800035fe:	1782                	slli	a5,a5,0x20
    80003600:	9381                	srli	a5,a5,0x20
    80003602:	078a                	slli	a5,a5,0x2
    80003604:	97ba                	add	a5,a5,a4
    80003606:	439c                	lw	a5,0(a5)
    80003608:	8736                	mv	a4,a3
    8000360a:	8fb9                	xor	a5,a5,a4
    8000360c:	0007871b          	sext.w	a4,a5
    80003610:	fb843783          	ld	a5,-72(s0)
    80003614:	43bc                	lw	a5,64(a5)
    80003616:	8fb9                	xor	a5,a5,a4
    80003618:	fef42623          	sw	a5,-20(s0)
    8000361c:	fd842783          	lw	a5,-40(s0)
    80003620:	0187d79b          	srliw	a5,a5,0x18
    80003624:	2781                	sext.w	a5,a5
    80003626:	00004717          	auipc	a4,0x4
    8000362a:	1c270713          	addi	a4,a4,450 # 800077e8 <Td0>
    8000362e:	1782                	slli	a5,a5,0x20
    80003630:	9381                	srli	a5,a5,0x20
    80003632:	078a                	slli	a5,a5,0x2
    80003634:	97ba                	add	a5,a5,a4
    80003636:	4394                	lw	a3,0(a5)
    80003638:	fdc42783          	lw	a5,-36(s0)
    8000363c:	0107d79b          	srliw	a5,a5,0x10
    80003640:	2781                	sext.w	a5,a5
    80003642:	0ff7f793          	andi	a5,a5,255
    80003646:	2781                	sext.w	a5,a5
    80003648:	00004717          	auipc	a4,0x4
    8000364c:	5a070713          	addi	a4,a4,1440 # 80007be8 <Td1>
    80003650:	1782                	slli	a5,a5,0x20
    80003652:	9381                	srli	a5,a5,0x20
    80003654:	078a                	slli	a5,a5,0x2
    80003656:	97ba                	add	a5,a5,a4
    80003658:	439c                	lw	a5,0(a5)
    8000365a:	8736                	mv	a4,a3
    8000365c:	8fb9                	xor	a5,a5,a4
    8000365e:	0007869b          	sext.w	a3,a5
    80003662:	fd042783          	lw	a5,-48(s0)
    80003666:	0087d79b          	srliw	a5,a5,0x8
    8000366a:	2781                	sext.w	a5,a5
    8000366c:	0ff7f793          	andi	a5,a5,255
    80003670:	2781                	sext.w	a5,a5
    80003672:	00005717          	auipc	a4,0x5
    80003676:	97670713          	addi	a4,a4,-1674 # 80007fe8 <Td2>
    8000367a:	1782                	slli	a5,a5,0x20
    8000367c:	9381                	srli	a5,a5,0x20
    8000367e:	078a                	slli	a5,a5,0x2
    80003680:	97ba                	add	a5,a5,a4
    80003682:	439c                	lw	a5,0(a5)
    80003684:	8736                	mv	a4,a3
    80003686:	8fb9                	xor	a5,a5,a4
    80003688:	0007869b          	sext.w	a3,a5
    8000368c:	fd442783          	lw	a5,-44(s0)
    80003690:	0ff7f793          	andi	a5,a5,255
    80003694:	2781                	sext.w	a5,a5
    80003696:	00005717          	auipc	a4,0x5
    8000369a:	d5270713          	addi	a4,a4,-686 # 800083e8 <Td3>
    8000369e:	1782                	slli	a5,a5,0x20
    800036a0:	9381                	srli	a5,a5,0x20
    800036a2:	078a                	slli	a5,a5,0x2
    800036a4:	97ba                	add	a5,a5,a4
    800036a6:	439c                	lw	a5,0(a5)
    800036a8:	8736                	mv	a4,a3
    800036aa:	8fb9                	xor	a5,a5,a4
    800036ac:	0007871b          	sext.w	a4,a5
    800036b0:	fb843783          	ld	a5,-72(s0)
    800036b4:	43fc                	lw	a5,68(a5)
    800036b6:	8fb9                	xor	a5,a5,a4
    800036b8:	fef42423          	sw	a5,-24(s0)
    800036bc:	fd442783          	lw	a5,-44(s0)
    800036c0:	0187d79b          	srliw	a5,a5,0x18
    800036c4:	2781                	sext.w	a5,a5
    800036c6:	00004717          	auipc	a4,0x4
    800036ca:	12270713          	addi	a4,a4,290 # 800077e8 <Td0>
    800036ce:	1782                	slli	a5,a5,0x20
    800036d0:	9381                	srli	a5,a5,0x20
    800036d2:	078a                	slli	a5,a5,0x2
    800036d4:	97ba                	add	a5,a5,a4
    800036d6:	4394                	lw	a3,0(a5)
    800036d8:	fd842783          	lw	a5,-40(s0)
    800036dc:	0107d79b          	srliw	a5,a5,0x10
    800036e0:	2781                	sext.w	a5,a5
    800036e2:	0ff7f793          	andi	a5,a5,255
    800036e6:	2781                	sext.w	a5,a5
    800036e8:	00004717          	auipc	a4,0x4
    800036ec:	50070713          	addi	a4,a4,1280 # 80007be8 <Td1>
    800036f0:	1782                	slli	a5,a5,0x20
    800036f2:	9381                	srli	a5,a5,0x20
    800036f4:	078a                	slli	a5,a5,0x2
    800036f6:	97ba                	add	a5,a5,a4
    800036f8:	439c                	lw	a5,0(a5)
    800036fa:	8736                	mv	a4,a3
    800036fc:	8fb9                	xor	a5,a5,a4
    800036fe:	0007869b          	sext.w	a3,a5
    80003702:	fdc42783          	lw	a5,-36(s0)
    80003706:	0087d79b          	srliw	a5,a5,0x8
    8000370a:	2781                	sext.w	a5,a5
    8000370c:	0ff7f793          	andi	a5,a5,255
    80003710:	2781                	sext.w	a5,a5
    80003712:	00005717          	auipc	a4,0x5
    80003716:	8d670713          	addi	a4,a4,-1834 # 80007fe8 <Td2>
    8000371a:	1782                	slli	a5,a5,0x20
    8000371c:	9381                	srli	a5,a5,0x20
    8000371e:	078a                	slli	a5,a5,0x2
    80003720:	97ba                	add	a5,a5,a4
    80003722:	439c                	lw	a5,0(a5)
    80003724:	8736                	mv	a4,a3
    80003726:	8fb9                	xor	a5,a5,a4
    80003728:	0007869b          	sext.w	a3,a5
    8000372c:	fd042783          	lw	a5,-48(s0)
    80003730:	0ff7f793          	andi	a5,a5,255
    80003734:	2781                	sext.w	a5,a5
    80003736:	00005717          	auipc	a4,0x5
    8000373a:	cb270713          	addi	a4,a4,-846 # 800083e8 <Td3>
    8000373e:	1782                	slli	a5,a5,0x20
    80003740:	9381                	srli	a5,a5,0x20
    80003742:	078a                	slli	a5,a5,0x2
    80003744:	97ba                	add	a5,a5,a4
    80003746:	439c                	lw	a5,0(a5)
    80003748:	8736                	mv	a4,a3
    8000374a:	8fb9                	xor	a5,a5,a4
    8000374c:	0007871b          	sext.w	a4,a5
    80003750:	fb843783          	ld	a5,-72(s0)
    80003754:	47bc                	lw	a5,72(a5)
    80003756:	8fb9                	xor	a5,a5,a4
    80003758:	fef42223          	sw	a5,-28(s0)
    8000375c:	fd042783          	lw	a5,-48(s0)
    80003760:	0187d79b          	srliw	a5,a5,0x18
    80003764:	2781                	sext.w	a5,a5
    80003766:	00004717          	auipc	a4,0x4
    8000376a:	08270713          	addi	a4,a4,130 # 800077e8 <Td0>
    8000376e:	1782                	slli	a5,a5,0x20
    80003770:	9381                	srli	a5,a5,0x20
    80003772:	078a                	slli	a5,a5,0x2
    80003774:	97ba                	add	a5,a5,a4
    80003776:	4394                	lw	a3,0(a5)
    80003778:	fd442783          	lw	a5,-44(s0)
    8000377c:	0107d79b          	srliw	a5,a5,0x10
    80003780:	2781                	sext.w	a5,a5
    80003782:	0ff7f793          	andi	a5,a5,255
    80003786:	2781                	sext.w	a5,a5
    80003788:	00004717          	auipc	a4,0x4
    8000378c:	46070713          	addi	a4,a4,1120 # 80007be8 <Td1>
    80003790:	1782                	slli	a5,a5,0x20
    80003792:	9381                	srli	a5,a5,0x20
    80003794:	078a                	slli	a5,a5,0x2
    80003796:	97ba                	add	a5,a5,a4
    80003798:	439c                	lw	a5,0(a5)
    8000379a:	8736                	mv	a4,a3
    8000379c:	8fb9                	xor	a5,a5,a4
    8000379e:	0007869b          	sext.w	a3,a5
    800037a2:	fd842783          	lw	a5,-40(s0)
    800037a6:	0087d79b          	srliw	a5,a5,0x8
    800037aa:	2781                	sext.w	a5,a5
    800037ac:	0ff7f793          	andi	a5,a5,255
    800037b0:	2781                	sext.w	a5,a5
    800037b2:	00005717          	auipc	a4,0x5
    800037b6:	83670713          	addi	a4,a4,-1994 # 80007fe8 <Td2>
    800037ba:	1782                	slli	a5,a5,0x20
    800037bc:	9381                	srli	a5,a5,0x20
    800037be:	078a                	slli	a5,a5,0x2
    800037c0:	97ba                	add	a5,a5,a4
    800037c2:	439c                	lw	a5,0(a5)
    800037c4:	8736                	mv	a4,a3
    800037c6:	8fb9                	xor	a5,a5,a4
    800037c8:	0007869b          	sext.w	a3,a5
    800037cc:	fdc42783          	lw	a5,-36(s0)
    800037d0:	0ff7f793          	andi	a5,a5,255
    800037d4:	2781                	sext.w	a5,a5
    800037d6:	00005717          	auipc	a4,0x5
    800037da:	c1270713          	addi	a4,a4,-1006 # 800083e8 <Td3>
    800037de:	1782                	slli	a5,a5,0x20
    800037e0:	9381                	srli	a5,a5,0x20
    800037e2:	078a                	slli	a5,a5,0x2
    800037e4:	97ba                	add	a5,a5,a4
    800037e6:	439c                	lw	a5,0(a5)
    800037e8:	8736                	mv	a4,a3
    800037ea:	8fb9                	xor	a5,a5,a4
    800037ec:	0007871b          	sext.w	a4,a5
    800037f0:	fb843783          	ld	a5,-72(s0)
    800037f4:	47fc                	lw	a5,76(a5)
    800037f6:	8fb9                	xor	a5,a5,a4
    800037f8:	fef42023          	sw	a5,-32(s0)
    800037fc:	fec42783          	lw	a5,-20(s0)
    80003800:	0187d79b          	srliw	a5,a5,0x18
    80003804:	2781                	sext.w	a5,a5
    80003806:	00004717          	auipc	a4,0x4
    8000380a:	fe270713          	addi	a4,a4,-30 # 800077e8 <Td0>
    8000380e:	1782                	slli	a5,a5,0x20
    80003810:	9381                	srli	a5,a5,0x20
    80003812:	078a                	slli	a5,a5,0x2
    80003814:	97ba                	add	a5,a5,a4
    80003816:	4394                	lw	a3,0(a5)
    80003818:	fe042783          	lw	a5,-32(s0)
    8000381c:	0107d79b          	srliw	a5,a5,0x10
    80003820:	2781                	sext.w	a5,a5
    80003822:	0ff7f793          	andi	a5,a5,255
    80003826:	2781                	sext.w	a5,a5
    80003828:	00004717          	auipc	a4,0x4
    8000382c:	3c070713          	addi	a4,a4,960 # 80007be8 <Td1>
    80003830:	1782                	slli	a5,a5,0x20
    80003832:	9381                	srli	a5,a5,0x20
    80003834:	078a                	slli	a5,a5,0x2
    80003836:	97ba                	add	a5,a5,a4
    80003838:	439c                	lw	a5,0(a5)
    8000383a:	8736                	mv	a4,a3
    8000383c:	8fb9                	xor	a5,a5,a4
    8000383e:	0007869b          	sext.w	a3,a5
    80003842:	fe442783          	lw	a5,-28(s0)
    80003846:	0087d79b          	srliw	a5,a5,0x8
    8000384a:	2781                	sext.w	a5,a5
    8000384c:	0ff7f793          	andi	a5,a5,255
    80003850:	2781                	sext.w	a5,a5
    80003852:	00004717          	auipc	a4,0x4
    80003856:	79670713          	addi	a4,a4,1942 # 80007fe8 <Td2>
    8000385a:	1782                	slli	a5,a5,0x20
    8000385c:	9381                	srli	a5,a5,0x20
    8000385e:	078a                	slli	a5,a5,0x2
    80003860:	97ba                	add	a5,a5,a4
    80003862:	439c                	lw	a5,0(a5)
    80003864:	8736                	mv	a4,a3
    80003866:	8fb9                	xor	a5,a5,a4
    80003868:	0007869b          	sext.w	a3,a5
    8000386c:	fe842783          	lw	a5,-24(s0)
    80003870:	0ff7f793          	andi	a5,a5,255
    80003874:	2781                	sext.w	a5,a5
    80003876:	00005717          	auipc	a4,0x5
    8000387a:	b7270713          	addi	a4,a4,-1166 # 800083e8 <Td3>
    8000387e:	1782                	slli	a5,a5,0x20
    80003880:	9381                	srli	a5,a5,0x20
    80003882:	078a                	slli	a5,a5,0x2
    80003884:	97ba                	add	a5,a5,a4
    80003886:	439c                	lw	a5,0(a5)
    80003888:	8736                	mv	a4,a3
    8000388a:	8fb9                	xor	a5,a5,a4
    8000388c:	0007871b          	sext.w	a4,a5
    80003890:	fb843783          	ld	a5,-72(s0)
    80003894:	4bbc                	lw	a5,80(a5)
    80003896:	8fb9                	xor	a5,a5,a4
    80003898:	fcf42e23          	sw	a5,-36(s0)
    8000389c:	fe842783          	lw	a5,-24(s0)
    800038a0:	0187d79b          	srliw	a5,a5,0x18
    800038a4:	2781                	sext.w	a5,a5
    800038a6:	00004717          	auipc	a4,0x4
    800038aa:	f4270713          	addi	a4,a4,-190 # 800077e8 <Td0>
    800038ae:	1782                	slli	a5,a5,0x20
    800038b0:	9381                	srli	a5,a5,0x20
    800038b2:	078a                	slli	a5,a5,0x2
    800038b4:	97ba                	add	a5,a5,a4
    800038b6:	4394                	lw	a3,0(a5)
    800038b8:	fec42783          	lw	a5,-20(s0)
    800038bc:	0107d79b          	srliw	a5,a5,0x10
    800038c0:	2781                	sext.w	a5,a5
    800038c2:	0ff7f793          	andi	a5,a5,255
    800038c6:	2781                	sext.w	a5,a5
    800038c8:	00004717          	auipc	a4,0x4
    800038cc:	32070713          	addi	a4,a4,800 # 80007be8 <Td1>
    800038d0:	1782                	slli	a5,a5,0x20
    800038d2:	9381                	srli	a5,a5,0x20
    800038d4:	078a                	slli	a5,a5,0x2
    800038d6:	97ba                	add	a5,a5,a4
    800038d8:	439c                	lw	a5,0(a5)
    800038da:	8736                	mv	a4,a3
    800038dc:	8fb9                	xor	a5,a5,a4
    800038de:	0007869b          	sext.w	a3,a5
    800038e2:	fe042783          	lw	a5,-32(s0)
    800038e6:	0087d79b          	srliw	a5,a5,0x8
    800038ea:	2781                	sext.w	a5,a5
    800038ec:	0ff7f793          	andi	a5,a5,255
    800038f0:	2781                	sext.w	a5,a5
    800038f2:	00004717          	auipc	a4,0x4
    800038f6:	6f670713          	addi	a4,a4,1782 # 80007fe8 <Td2>
    800038fa:	1782                	slli	a5,a5,0x20
    800038fc:	9381                	srli	a5,a5,0x20
    800038fe:	078a                	slli	a5,a5,0x2
    80003900:	97ba                	add	a5,a5,a4
    80003902:	439c                	lw	a5,0(a5)
    80003904:	8736                	mv	a4,a3
    80003906:	8fb9                	xor	a5,a5,a4
    80003908:	0007869b          	sext.w	a3,a5
    8000390c:	fe442783          	lw	a5,-28(s0)
    80003910:	0ff7f793          	andi	a5,a5,255
    80003914:	2781                	sext.w	a5,a5
    80003916:	00005717          	auipc	a4,0x5
    8000391a:	ad270713          	addi	a4,a4,-1326 # 800083e8 <Td3>
    8000391e:	1782                	slli	a5,a5,0x20
    80003920:	9381                	srli	a5,a5,0x20
    80003922:	078a                	slli	a5,a5,0x2
    80003924:	97ba                	add	a5,a5,a4
    80003926:	439c                	lw	a5,0(a5)
    80003928:	8736                	mv	a4,a3
    8000392a:	8fb9                	xor	a5,a5,a4
    8000392c:	0007871b          	sext.w	a4,a5
    80003930:	fb843783          	ld	a5,-72(s0)
    80003934:	4bfc                	lw	a5,84(a5)
    80003936:	8fb9                	xor	a5,a5,a4
